(dp0
S'344'
p1
S'tt50::tt318::tt608::tt296::tt919::tt904::tt541::tt110::tt36::tt2028'
p2
sS'345'
p3
S'tt318::tt608::tt919::tt2028::tt541::tt1089::tt194::tt296::tt745::tt1258'
p4
sS'346'
p5
S'tt318::tt50::tt608::tt919::tt904::tt541::tt296::tt36::tt2028::tt1089'
p6
sS'347'
p7
S'tt318::tt50::tt608::tt919::tt904::tt296::tt541::tt36::tt2028::tt110'
p8
sS'340'
p9
S'tt318::tt50::tt608::tt919::tt904::tt541::tt36::tt2028::tt1089::tt194'
p10
sS'341'
p11
S'tt318::tt50::tt608::tt919::tt904::tt36::tt296::tt541::tt2028::tt1089'
p12
sS'342'
p13
S'tt318::tt50::tt608::tt904::tt2028::tt541::tt194::tt1089::tt110::tt745'
p14
sS'343'
p15
S'tt318::tt50::tt608::tt919::tt904::tt296::tt541::tt2028::tt110::tt1089'
p16
sS'348'
p17
S'tt318::tt50::tt608::tt919::tt904::tt36::tt2028::tt541::tt194::tt1089'
p18
sS'349'
p19
S'tt318::tt50::tt608::tt919::tt296::tt904::tt541::tt36::tt110::tt2028'
p20
sS'595'
p21
S'tt50::tt608::tt919::tt904::tt36::tt2028::tt541::tt296::tt1089::tt194'
p22
sS'606'
p23
S'tt318::tt50::tt608::tt919::tt904::tt2028::tt36::tt296::tt541::tt1089'
p24
sS'594'
p25
S'tt318::tt50::tt608::tt919::tt904::tt2028::tt36::tt1089::tt194::tt296'
p26
sS'619'
p27
S'tt318::tt50::tt608::tt919::tt904::tt36::tt541::tt296::tt2028::tt1089'
p28
sS'298'
p29
S'tt318::tt50::tt608::tt904::tt919::tt296::tt541::tt36::tt110::tt2028'
p30
sS'299'
p31
S'tt318::tt50::tt608::tt919::tt904::tt36::tt541::tt2028::tt1089::tt110'
p32
sS'296'
p33
S'tt318::tt50::tt608::tt919::tt904::tt541::tt36::tt2028::tt296::tt1089'
p34
sS'297'
p35
S'tt318::tt50::tt919::tt904::tt2028::tt36::tt541::tt194::tt745::tt110'
p36
sS'294'
p37
S'tt50::tt608::tt919::tt2028::tt36::tt1089::tt194::tt296::tt745::tt1258'
p38
sS'295'
p39
S'tt608::tt919::tt904::tt2028::tt36::tt1089::tt194::tt745::tt1258::tt1198'
p40
sS'292'
p41
S'tt318::tt50::tt608::tt919::tt904::tt2028::tt36::tt541::tt1089::tt194'
p42
sS'293'
p43
S'tt318::tt50::tt608::tt296::tt919::tt541::tt904::tt2028::tt150::tt36'
p44
sS'290'
p45
S'tt318::tt608::tt919::tt904::tt2028::tt36::tt541::tt1089::tt194::tt296'
p46
sS'291'
p47
S'tt318::tt50::tt608::tt919::tt904::tt296::tt36::tt541::tt2028::tt110'
p48
sS'591'
p49
S'tt318::tt50::tt608::tt919::tt904::tt541::tt296::tt36::tt2028::tt110'
p50
sS'590'
p51
S'tt318::tt50::tt608::tt919::tt904::tt2028::tt36::tt541::tt1089::tt194'
p52
sS'593'
p53
S'tt318::tt50::tt608::tt919::tt904::tt2028::tt541::tt296::tt36::tt194'
p54
sS'592'
p55
S'tt318::tt50::tt608::tt919::tt904::tt2028::tt36::tt541::tt1089::tt194'
p56
sS'199'
p57
S'tt919::tt904::tt2028::tt36::tt1089::tt194::tt296::tt745::tt1258::tt1198'
p58
sS'198'
p59
S'tt50::tt318::tt919::tt904::tt296::tt541::tt36::tt2028::tt110::tt593'
p60
sS'597'
p61
S'tt318::tt50::tt608::tt919::tt904::tt2028::tt36::tt541::tt1089::tt194'
p62
sS'596'
p63
S'tt318::tt608::tt919::tt904::tt2028::tt541::tt1089::tt194::tt296::tt745'
p64
sS'195'
p65
S'tt50::tt904::tt2028::tt36::tt1089::tt194::tt745::tt1258::tt1198::tt1265'
p66
sS'194'
p67
S'tt318::tt50::tt608::tt919::tt904::tt2028::tt541::tt296::tt36::tt194'
p68
sS'197'
p69
S'tt318::tt50::tt608::tt919::tt904::tt296::tt36::tt541::tt2028::tt110'
p70
sS'196'
p71
S'tt318::tt50::tt608::tt919::tt904::tt2028::tt36::tt541::tt1089::tt194'
p72
sS'191'
p73
S'tt318::tt50::tt608::tt919::tt904::tt296::tt36::tt2028::tt541::tt110'
p74
sS'190'
p75
S'tt318::tt50::tt608::tt919::tt904::tt36::tt296::tt541::tt2028::tt1198'
p76
sS'193'
p77
S'tt50::tt608::tt919::tt36::tt2028::tt541::tt1089::tt194::tt745::tt110'
p78
sS'192'
p79
S'tt318::tt50::tt608::tt919::tt904::tt2028::tt36::tt296::tt541::tt1089'
p80
sS'270'
p81
S'tt318::tt608::tt919::tt904::tt36::tt2028::tt541::tt1089::tt194::tt110'
p82
sS'271'
p83
S'tt608::tt919::tt904::tt2028::tt36::tt541::tt194::tt1089::tt745::tt1258'
p84
sS'272'
p85
S'tt318::tt50::tt608::tt919::tt904::tt296::tt36::tt541::tt2028::tt194'
p86
sS'273'
p87
S'tt318::tt50::tt608::tt919::tt904::tt36::tt2028::tt541::tt1089::tt194'
p88
sS'274'
p89
S'tt50::tt318::tt608::tt919::tt904::tt541::tt36::tt2028::tt110::tt1198'
p90
sS'275'
p91
S'tt318::tt919::tt904::tt2028::tt36::tt541::tt296::tt1089::tt194::tt110'
p92
sS'276'
p93
S'tt318::tt50::tt608::tt919::tt904::tt296::tt541::tt36::tt2028::tt110'
p94
sS'277'
p95
S'tt318::tt50::tt608::tt919::tt904::tt296::tt541::tt36::tt110::tt2028'
p96
sS'278'
p97
S'tt318::tt50::tt608::tt919::tt904::tt36::tt541::tt2028::tt1089::tt110'
p98
sS'279'
p99
S'tt318::tt50::tt608::tt919::tt904::tt296::tt36::tt541::tt2028::tt110'
p100
sS'524'
p101
S'tt318::tt50::tt608::tt904::tt919::tt36::tt541::tt2028::tt110::tt194'
p102
sS'525'
p103
S'tt318::tt50::tt608::tt919::tt904::tt2028::tt36::tt296::tt194::tt1089'
p104
sS'526'
p105
S'tt50::tt318::tt296::tt608::tt919::tt541::tt904::tt36::tt110::tt1198'
p106
sS'527'
p107
S'tt318::tt608::tt919::tt904::tt2028::tt1089::tt194::tt745::tt593::tt1258'
p108
sS'520'
p109
S'tt318::tt50::tt608::tt919::tt904::tt2028::tt36::tt541::tt194::tt745'
p110
sS'521'
p111
S'tt608::tt919::tt904::tt2028::tt541::tt296::tt36::tt194::tt1089::tt110'
p112
sS'522'
p113
S'tt318::tt608::tt919::tt904::tt36::tt2028::tt541::tt296::tt1089::tt194'
p114
sS'523'
p115
S'tt318::tt50::tt608::tt919::tt296::tt904::tt541::tt2028::tt36::tt110'
p116
sS'599'
p117
S'tt50::tt318::tt296::tt608::tt904::tt919::tt541::tt36::tt110::tt1198'
p118
sS'528'
p119
S'tt318::tt608::tt919::tt904::tt36::tt541::tt2028::tt110::tt1198::tt593'
p120
sS'529'
p121
S'tt50::tt608::tt919::tt2028::tt541::tt1089::tt194::tt296::tt745::tt110'
p122
sS'449'
p123
S'tt318::tt50::tt608::tt919::tt904::tt36::tt296::tt541::tt2028::tt194'
p124
sS'448'
p125
S'tt318::tt50::tt608::tt919::tt904::tt296::tt541::tt36::tt2028::tt110'
p126
sS'443'
p127
S'tt318::tt50::tt608::tt296::tt919::tt904::tt541::tt36::tt1198::tt150'
p128
sS'442'
p129
S'tt50::tt608::tt919::tt904::tt2028::tt541::tt1089::tt194::tt745::tt1258'
p130
sS'441'
p131
S'tt50::tt608::tt919::tt904::tt2028::tt36::tt1089::tt745::tt1258::tt1198'
p132
sS'440'
p133
S'tt318::tt608::tt919::tt904::tt296::tt36::tt541::tt2028::tt1089::tt110'
p134
sS'447'
p135
S'tt318::tt50::tt608::tt919::tt904::tt2028::tt541::tt1089::tt194::tt296'
p136
sS'446'
p137
S'tt50::tt318::tt608::tt919::tt904::tt296::tt541::tt36::tt1198::tt2028'
p138
sS'445'
p139
S'tt318::tt50::tt608::tt919::tt904::tt36::tt2028::tt541::tt1089::tt194'
p140
sS'444'
p141
S'tt50::tt318::tt608::tt919::tt904::tt296::tt541::tt36::tt110::tt2028'
p142
sS'108'
p143
S'tt318::tt50::tt608::tt919::tt904::tt296::tt541::tt36::tt2028::tt593'
p144
sS'109'
p145
S'tt318::tt50::tt608::tt919::tt904::tt296::tt36::tt541::tt2028::tt110'
p146
sS'102'
p147
S'tt608::tt919::tt904::tt2028::tt541::tt1089::tt745::tt110::tt1258::tt1198'
p148
sS'103'
p149
S'tt318::tt50::tt608::tt919::tt904::tt36::tt2028::tt296::tt1089::tt194'
p150
sS'100'
p151
S'tt318::tt50::tt608::tt919::tt904::tt36::tt296::tt541::tt2028::tt110'
p152
sS'101'
p153
S'tt318::tt50::tt608::tt919::tt904::tt296::tt36::tt2028::tt541::tt194'
p154
sS'106'
p155
S'tt318::tt50::tt608::tt919::tt904::tt296::tt541::tt36::tt110::tt2028'
p156
sS'107'
p157
S'tt50::tt318::tt608::tt919::tt904::tt296::tt541::tt36::tt2028::tt110'
p158
sS'104'
p159
S'tt318::tt50::tt608::tt919::tt904::tt2028::tt36::tt541::tt1089::tt194'
p160
sS'105'
p161
S'tt919::tt904::tt2028::tt1089::tt194::tt745::tt1258::tt1198::tt1265::tt1090'
p162
sS'39'
p163
S'tt318::tt608::tt919::tt904::tt2028::tt36::tt541::tt296::tt1089::tt194'
p164
sS'38'
p165
S'tt50::tt608::tt919::tt904::tt36::tt541::tt296::tt2028::tt1089::tt745'
p166
sS'33'
p167
S'tt318::tt50::tt608::tt919::tt904::tt36::tt296::tt2028::tt541::tt110'
p168
sS'32'
p169
S'tt318::tt50::tt608::tt919::tt904::tt2028::tt36::tt541::tt1089::tt194'
p170
sS'31'
p171
S'tt608::tt919::tt2028::tt36::tt194::tt745::tt110::tt1258::tt1198::tt1265'
p172
sS'30'
p173
S'tt318::tt50::tt608::tt2028::tt36::tt1089::tt194::tt296::tt745::tt110'
p174
sS'37'
p175
S'tt50::tt318::tt608::tt919::tt904::tt296::tt541::tt36::tt110::tt2028'
p176
sS'36'
p177
S'tt318::tt608::tt919::tt904::tt2028::tt541::tt296::tt194::tt1089::tt745'
p178
sS'35'
p179
S'tt318::tt50::tt608::tt904::tt919::tt36::tt2028::tt541::tt296::tt194'
p180
sS'34'
p181
S'tt318::tt50::tt919::tt904::tt2028::tt36::tt1089::tt194::tt296::tt745'
p182
sS'641'
p183
S'tt318::tt50::tt608::tt919::tt904::tt2028::tt541::tt296::tt1089::tt194'
p184
sS'640'
p185
S'tt318::tt50::tt608::tt919::tt904::tt2028::tt36::tt541::tt1089::tt194'
p186
sS'643'
p187
S'tt318::tt50::tt608::tt919::tt904::tt296::tt541::tt36::tt110::tt2028'
p188
sS'642'
p189
S'tt50::tt318::tt608::tt919::tt296::tt904::tt541::tt36::tt2028::tt110'
p190
sS'645'
p191
S'tt318::tt50::tt608::tt919::tt904::tt296::tt36::tt541::tt2028::tt110'
p192
sS'644'
p193
S'tt318::tt50::tt608::tt919::tt904::tt2028::tt36::tt296::tt541::tt194'
p194
sS'438'
p195
S'tt318::tt50::tt608::tt919::tt904::tt2028::tt36::tt541::tt194::tt296'
p196
sS'439'
p197
S'tt318::tt50::tt608::tt919::tt904::tt296::tt36::tt541::tt2028::tt1089'
p198
sS'436'
p199
S'tt318::tt50::tt608::tt919::tt904::tt36::tt2028::tt541::tt296::tt1089'
p200
sS'437'
p201
S'tt318::tt50::tt608::tt919::tt904::tt2028::tt36::tt541::tt1089::tt194'
p202
sS'434'
p203
S'tt318::tt50::tt608::tt919::tt904::tt2028::tt36::tt541::tt1089::tt296'
p204
sS'435'
p205
S'tt318::tt50::tt608::tt919::tt904::tt296::tt36::tt541::tt2028::tt110'
p206
sS'432'
p207
S'tt318::tt50::tt608::tt919::tt904::tt2028::tt36::tt296::tt541::tt1089'
p208
sS'433'
p209
S'tt318::tt608::tt919::tt904::tt2028::tt541::tt296::tt194::tt1089::tt110'
p210
sS'430'
p211
S'tt318::tt50::tt919::tt904::tt2028::tt36::tt541::tt1089::tt194::tt745'
p212
sS'431'
p213
S'tt318::tt50::tt608::tt919::tt904::tt2028::tt541::tt296::tt36::tt194'
p214
sS'339'
p215
S'tt318::tt50::tt608::tt904::tt919::tt36::tt296::tt2028::tt194::tt1089'
p216
sS'338'
p217
S'tt318::tt50::tt608::tt919::tt904::tt296::tt541::tt36::tt2028::tt110'
p218
sS'335'
p219
S'tt50::tt318::tt296::tt608::tt919::tt904::tt541::tt36::tt110::tt1198'
p220
sS'334'
p221
S'tt50::tt608::tt919::tt904::tt541::tt36::tt296::tt2028::tt1198::tt1089'
p222
sS'337'
p223
S'tt318::tt50::tt608::tt919::tt904::tt296::tt2028::tt36::tt110::tt194'
p224
sS'336'
p225
S'tt318::tt50::tt608::tt904::tt919::tt296::tt36::tt541::tt2028::tt110'
p226
sS'331'
p227
S'tt318::tt50::tt608::tt919::tt296::tt904::tt541::tt36::tt2028::tt110'
p228
sS'330'
p229
S'tt318::tt608::tt919::tt904::tt296::tt541::tt2028::tt36::tt1089::tt110'
p230
sS'333'
p231
S'tt318::tt50::tt608::tt919::tt904::tt36::tt541::tt1089::tt194::tt296'
p232
sS'332'
p233
S'tt50::tt318::tt296::tt608::tt919::tt904::tt541::tt36::tt1198::tt110'
p234
sS'6'
p235
S'tt318::tt50::tt608::tt919::tt904::tt36::tt2028::tt541::tt296::tt1089'
p236
sS'99'
p237
S'tt318::tt608::tt919::tt904::tt2028::tt36::tt541::tt1089::tt194::tt745'
p238
sS'98'
p239
S'tt318::tt50::tt608::tt919::tt904::tt36::tt541::tt2028::tt1089::tt194'
p240
sS'91'
p241
S'tt318::tt50::tt608::tt919::tt904::tt2028::tt36::tt541::tt1089::tt194'
p242
sS'90'
p243
S'tt50::tt318::tt608::tt919::tt904::tt296::tt541::tt2028::tt110::tt1089'
p244
sS'93'
p245
S'tt318::tt50::tt608::tt919::tt904::tt2028::tt36::tt541::tt1089::tt194'
p246
sS'92'
p247
S'tt50::tt318::tt608::tt919::tt904::tt296::tt541::tt36::tt110::tt2028'
p248
sS'95'
p249
S'tt318::tt50::tt608::tt904::tt919::tt541::tt296::tt36::tt2028::tt110'
p250
sS'94'
p251
S'tt318::tt608::tt919::tt904::tt2028::tt36::tt541::tt194::tt745::tt1258'
p252
sS'97'
p253
S'tt50::tt919::tt36::tt2028::tt1089::tt194::tt745::tt1198::tt1258::tt1090'
p254
sS'96'
p255
S'tt608::tt919::tt904::tt541::tt36::tt2028::tt296::tt1089::tt745::tt194'
p256
sS'559'
p257
S'tt318::tt50::tt608::tt919::tt904::tt541::tt296::tt36::tt2028::tt110'
p258
sS'558'
p259
S'tt50::tt318::tt919::tt904::tt296::tt541::tt36::tt2028::tt110::tt1198'
p260
sS'555'
p261
S'tt318::tt608::tt919::tt904::tt2028::tt36::tt541::tt1089::tt194::tt296'
p262
sS'554'
p263
S'tt318::tt50::tt608::tt919::tt904::tt2028::tt36::tt296::tt1089::tt194'
p264
sS'557'
p265
S'tt318::tt50::tt608::tt919::tt904::tt296::tt36::tt2028::tt541::tt1089'
p266
sS'556'
p267
S'tt318::tt608::tt919::tt904::tt36::tt2028::tt541::tt1089::tt194::tt745'
p268
sS'551'
p269
S'tt50::tt318::tt608::tt919::tt904::tt296::tt541::tt36::tt2028::tt110'
p270
sS'550'
p271
S'tt318::tt50::tt608::tt919::tt904::tt2028::tt36::tt541::tt1089::tt194'
p272
sS'553'
p273
S'tt318::tt50::tt608::tt919::tt904::tt36::tt296::tt541::tt2028::tt110'
p274
sS'552'
p275
S'tt318::tt50::tt608::tt919::tt904::tt296::tt541::tt36::tt2028::tt1089'
p276
sS'238'
p277
S'tt50::tt608::tt904::tt919::tt36::tt541::tt296::tt194::tt1089::tt110'
p278
sS'239'
p279
S'tt318::tt50::tt608::tt919::tt904::tt2028::tt36::tt541::tt1089::tt194'
p280
sS'234'
p281
S'tt318::tt50::tt608::tt919::tt904::tt2028::tt36::tt1089::tt194::tt296'
p282
sS'235'
p283
S'tt318::tt50::tt608::tt919::tt904::tt2028::tt36::tt541::tt194::tt1089'
p284
sS'236'
p285
S'tt318::tt50::tt608::tt919::tt904::tt2028::tt36::tt1089::tt194::tt745'
p286
sS'237'
p287
S'tt318::tt50::tt608::tt919::tt904::tt296::tt541::tt36::tt2028::tt1198'
p288
sS'230'
p289
S'tt50::tt919::tt904::tt296::tt36::tt541::tt2028::tt1089::tt194::tt745'
p290
sS'231'
p291
S'tt318::tt50::tt608::tt919::tt904::tt2028::tt541::tt296::tt36::tt194'
p292
sS'232'
p293
S'tt318::tt50::tt608::tt919::tt904::tt2028::tt36::tt541::tt1089::tt194'
p294
sS'233'
p295
S'tt318::tt50::tt608::tt919::tt904::tt36::tt296::tt541::tt2028::tt110'
p296
sS'1'
p297
S'tt318::tt50::tt608::tt919::tt904::tt296::tt36::tt541::tt110::tt2028'
p298
sS'614'
p299
S'tt50::tt318::tt608::tt919::tt904::tt296::tt541::tt36::tt110::tt2028'
p300
sS'146'
p301
S'tt50::tt608::tt904::tt919::tt36::tt541::tt296::tt2028::tt110::tt194'
p302
sS'147'
p303
S'tt318::tt50::tt608::tt919::tt904::tt296::tt541::tt2028::tt36::tt110'
p304
sS'144'
p305
S'tt318::tt50::tt608::tt919::tt904::tt2028::tt36::tt541::tt296::tt1089'
p306
sS'145'
p307
S'tt318::tt50::tt608::tt919::tt904::tt296::tt541::tt36::tt2028::tt1089'
p308
sS'142'
p309
S'tt318::tt50::tt608::tt919::tt904::tt296::tt36::tt541::tt2028::tt1089'
p310
sS'143'
p311
S'tt50::tt608::tt919::tt904::tt2028::tt36::tt541::tt1089::tt194::tt745'
p312
sS'140'
p313
S'tt318::tt50::tt608::tt919::tt904::tt2028::tt36::tt541::tt296::tt1089'
p314
sS'141'
p315
S'tt318::tt50::tt608::tt904::tt919::tt296::tt36::tt541::tt2028::tt110'
p316
sS'612'
p317
S'tt318::tt50::tt608::tt919::tt904::tt36::tt2028::tt296::tt541::tt194'
p318
sS'613'
p319
S'tt318::tt50::tt608::tt919::tt904::tt296::tt36::tt541::tt110::tt2028'
p320
sS'610'
p321
S'tt318::tt50::tt608::tt919::tt904::tt296::tt541::tt36::tt2028::tt110'
p322
sS'611'
p323
S'tt318::tt50::tt608::tt919::tt904::tt36::tt2028::tt541::tt296::tt1089'
p324
sS'616'
p325
S'tt318::tt50::tt608::tt919::tt904::tt296::tt541::tt36::tt2028::tt1089'
p326
sS'617'
p327
S'tt318::tt50::tt608::tt919::tt904::tt2028::tt36::tt541::tt1089::tt194'
p328
sS'148'
p329
S'tt318::tt50::tt608::tt919::tt904::tt2028::tt36::tt541::tt296::tt1089'
p330
sS'149'
p331
S'tt608::tt919::tt904::tt36::tt2028::tt194::tt745::tt110::tt1258::tt1198'
p332
sS'623'
p333
S'tt318::tt50::tt608::tt904::tt919::tt296::tt36::tt541::tt2028::tt1198'
p334
sS'622'
p335
S'tt318::tt50::tt608::tt919::tt296::tt904::tt541::tt36::tt110::tt2028'
p336
sS'133'
p337
S'tt50::tt608::tt904::tt541::tt36::tt2028::tt1089::tt194::tt1210::tt1258'
p338
sS'132'
p339
S'tt318::tt50::tt608::tt919::tt904::tt541::tt36::tt110::tt194::tt1089'
p340
sS'131'
p341
S'tt318::tt50::tt608::tt919::tt904::tt296::tt541::tt36::tt2028::tt110'
p342
sS'130'
p343
S'tt608::tt919::tt904::tt2028::tt541::tt1089::tt194::tt296::tt745::tt1258'
p344
sS'137'
p345
S'tt318::tt50::tt608::tt919::tt904::tt36::tt2028::tt296::tt1089::tt745'
p346
sS'136'
p347
S'tt50::tt608::tt919::tt904::tt296::tt36::tt541::tt2028::tt110::tt194'
p348
sS'135'
p349
S'tt318::tt50::tt608::tt919::tt904::tt296::tt36::tt541::tt2028::tt110'
p350
sS'134'
p351
S'tt318::tt50::tt608::tt919::tt904::tt296::tt541::tt36::tt2028::tt110'
p352
sS'494'
p353
S'tt50::tt608::tt904::tt919::tt36::tt2028::tt541::tt194::tt1089::tt110'
p354
sS'495'
p355
S'tt318::tt50::tt608::tt919::tt904::tt541::tt296::tt2028::tt36::tt110'
p356
sS'139'
p357
S'tt50::tt608::tt919::tt904::tt296::tt541::tt2028::tt36::tt1089::tt194'
p358
sS'138'
p359
S'tt608::tt919::tt904::tt541::tt36::tt2028::tt1089::tt745::tt194::tt110'
p360
sS'490'
p361
S'tt318::tt50::tt608::tt919::tt904::tt296::tt541::tt36::tt2028::tt110'
p362
sS'491'
p363
S'tt318::tt50::tt608::tt919::tt904::tt296::tt36::tt541::tt2028::tt1089'
p364
sS'492'
p365
S'tt318::tt50::tt919::tt904::tt36::tt541::tt2028::tt296::tt1089::tt110'
p366
sS'493'
p367
S'tt318::tt50::tt608::tt904::tt919::tt296::tt36::tt541::tt2028::tt110'
p368
sS'24'
p369
S'tt318::tt50::tt608::tt919::tt904::tt296::tt541::tt2028::tt110::tt194'
p370
sS'25'
p371
S'tt50::tt318::tt608::tt919::tt904::tt296::tt541::tt36::tt110::tt2028'
p372
sS'26'
p373
S'tt608::tt919::tt904::tt36::tt2028::tt541::tt1089::tt194::tt745::tt110'
p374
sS'27'
p375
S'tt318::tt608::tt919::tt904::tt36::tt541::tt2028::tt194::tt110::tt1089'
p376
sS'20'
p377
S'tt318::tt50::tt608::tt919::tt904::tt36::tt541::tt2028::tt1089::tt194'
p378
sS'21'
p379
S'tt318::tt50::tt608::tt919::tt904::tt2028::tt541::tt1089::tt194::tt745'
p380
sS'22'
p381
S'tt318::tt50::tt608::tt919::tt904::tt2028::tt296::tt36::tt194::tt1089'
p382
sS'23'
p383
S'tt50::tt318::tt608::tt919::tt904::tt296::tt541::tt36::tt110::tt2028'
p384
sS'28'
p385
S'tt318::tt50::tt608::tt919::tt36::tt2028::tt541::tt296::tt1089::tt194'
p386
sS'29'
p387
S'tt318::tt50::tt296::tt608::tt919::tt904::tt541::tt36::tt110::tt150'
p388
sS'407'
p389
S'tt608::tt919::tt904::tt2028::tt541::tt1089::tt194::tt296::tt745::tt110'
p390
sS'406'
p391
S'tt318::tt50::tt608::tt904::tt919::tt296::tt541::tt36::tt110::tt2028'
p392
sS'405'
p393
S'tt318::tt50::tt608::tt919::tt904::tt2028::tt36::tt541::tt1089::tt194'
p394
sS'404'
p395
S'tt318::tt50::tt608::tt919::tt904::tt296::tt36::tt541::tt2028::tt110'
p396
sS'403'
p397
S'tt318::tt50::tt608::tt919::tt904::tt296::tt541::tt36::tt2028::tt110'
p398
sS'402'
p399
S'tt318::tt50::tt608::tt919::tt904::tt2028::tt36::tt541::tt1089::tt194'
p400
sS'401'
p401
S'tt318::tt50::tt608::tt919::tt904::tt296::tt541::tt36::tt2028::tt110'
p402
sS'400'
p403
S'tt318::tt50::tt608::tt919::tt904::tt36::tt2028::tt541::tt296::tt194'
p404
sS'629'
p405
S'tt50::tt318::tt608::tt296::tt919::tt904::tt541::tt36::tt110::tt2028'
p406
sS'409'
p407
S'tt318::tt50::tt608::tt919::tt904::tt36::tt296::tt541::tt2028::tt110'
p408
sS'408'
p409
S'tt318::tt50::tt2028::tt36::tt541::tt1089::tt194::tt745::tt110::tt1258'
p410
sS'628'
p411
S'tt318::tt50::tt608::tt919::tt904::tt296::tt36::tt541::tt2028::tt194'
p412
sS'379'
p413
S'tt318::tt50::tt608::tt919::tt904::tt2028::tt36::tt541::tt1089::tt194'
p414
sS'378'
p415
S'tt608::tt919::tt904::tt2028::tt36::tt541::tt194::tt745::tt110::tt1198'
p416
sS'371'
p417
S'tt318::tt50::tt608::tt919::tt904::tt2028::tt36::tt541::tt194::tt745'
p418
sS'370'
p419
S'tt318::tt50::tt608::tt919::tt904::tt2028::tt36::tt296::tt541::tt1089'
p420
sS'373'
p421
S'tt318::tt608::tt919::tt904::tt2028::tt541::tt1089::tt194::tt296::tt745'
p422
sS'372'
p423
S'tt318::tt50::tt608::tt919::tt296::tt904::tt541::tt36::tt110::tt2028'
p424
sS'375'
p425
S'tt50::tt318::tt608::tt919::tt904::tt296::tt541::tt36::tt1198::tt2028'
p426
sS'374'
p427
S'tt318::tt50::tt608::tt919::tt904::tt296::tt541::tt36::tt1089::tt110'
p428
sS'377'
p429
S'tt318::tt50::tt608::tt919::tt904::tt296::tt541::tt36::tt2028::tt110'
p430
sS'376'
p431
S'tt50::tt608::tt919::tt296::tt36::tt541::tt2028::tt110::tt194::tt1089'
p432
sS'618'
p433
S'tt318::tt50::tt608::tt919::tt904::tt296::tt36::tt541::tt2028::tt1089'
p434
sS'393'
p435
S'tt50::tt318::tt296::tt608::tt541::tt904::tt919::tt36::tt110::tt150'
p436
sS'392'
p437
S'tt318::tt50::tt608::tt919::tt904::tt541::tt296::tt36::tt2028::tt110'
p438
sS'88'
p439
S'tt50::tt608::tt919::tt904::tt2028::tt1089::tt194::tt745::tt110::tt593'
p440
sS'89'
p441
S'tt318::tt50::tt608::tt919::tt904::tt296::tt541::tt36::tt2028::tt110'
p442
sS'397'
p443
S'tt318::tt50::tt608::tt919::tt904::tt296::tt36::tt541::tt2028::tt1089'
p444
sS'396'
p445
S'tt50::tt318::tt608::tt919::tt904::tt296::tt541::tt36::tt2028::tt110'
p446
sS'395'
p447
S'tt50::tt318::tt608::tt919::tt296::tt904::tt541::tt36::tt2028::tt1198'
p448
sS'394'
p449
S'tt608::tt919::tt904::tt2028::tt36::tt541::tt1089::tt194::tt745::tt1258'
p450
sS'82'
p451
S'tt318::tt608::tt919::tt904::tt2028::tt36::tt541::tt296::tt1089::tt194'
p452
sS'83'
p453
S'tt318::tt50::tt608::tt919::tt904::tt296::tt541::tt36::tt2028::tt110'
p454
sS'80'
p455
S'tt318::tt50::tt608::tt919::tt904::tt296::tt541::tt36::tt2028::tt593'
p456
sS'81'
p457
S'tt50::tt608::tt919::tt2028::tt36::tt541::tt1089::tt194::tt296::tt745'
p458
sS'86'
p459
S'tt318::tt50::tt608::tt919::tt904::tt2028::tt541::tt1089::tt296::tt745'
p460
sS'87'
p461
S'tt318::tt50::tt608::tt919::tt904::tt296::tt541::tt36::tt2028::tt110'
p462
sS'84'
p463
S'tt318::tt50::tt608::tt296::tt919::tt904::tt541::tt36::tt110::tt150'
p464
sS'85'
p465
S'tt318::tt50::tt608::tt904::tt919::tt296::tt36::tt541::tt2028::tt110'
p466
sS'7'
p467
S'tt318::tt50::tt608::tt919::tt904::tt36::tt296::tt541::tt2028::tt194'
p468
sS'601'
p469
S'tt50::tt318::tt608::tt919::tt904::tt296::tt541::tt36::tt2028::tt110'
p470
sS'607'
p471
S'tt318::tt608::tt919::tt904::tt2028::tt36::tt541::tt1089::tt194::tt296'
p472
sS'586'
p473
S'tt50::tt608::tt919::tt904::tt2028::tt36::tt296::tt541::tt194::tt1089'
p474
sS'587'
p475
S'tt2028::tt36::tt745::tt110::tt1258::tt1265::tt1090::tt1210::tt357::tt527'
p476
sS'584'
p477
S'tt318::tt50::tt608::tt919::tt904::tt36::tt2028::tt194::tt1089::tt745'
p478
sS'585'
p479
S'tt318::tt50::tt608::tt919::tt904::tt2028::tt36::tt541::tt296::tt1089'
p480
sS'582'
p481
S'tt318::tt50::tt608::tt919::tt904::tt296::tt36::tt541::tt2028::tt110'
p482
sS'583'
p483
S'tt318::tt50::tt608::tt919::tt904::tt2028::tt36::tt296::tt541::tt1089'
p484
sS'580'
p485
S'tt904::tt2028::tt36::tt194::tt745::tt1258::tt1265::tt457::tt1732::tt858'
p486
sS'581'
p487
S'tt318::tt50::tt608::tt919::tt904::tt296::tt541::tt36::tt2028::tt110'
p488
sS'588'
p489
S'tt318::tt50::tt608::tt919::tt904::tt296::tt541::tt2028::tt36::tt110'
p490
sS'589'
p491
S'tt318::tt50::tt608::tt919::tt296::tt904::tt541::tt36::tt6::tt457'
p492
sS'245'
p493
S'tt318::tt608::tt904::tt919::tt541::tt110::tt1198::tt2028::tt593::tt194'
p494
sS'244'
p495
S'tt318::tt50::tt608::tt919::tt296::tt904::tt541::tt36::tt593::tt2028'
p496
sS'247'
p497
S'tt318::tt50::tt608::tt919::tt904::tt2028::tt36::tt541::tt1089::tt194'
p498
sS'246'
p499
S'tt318::tt50::tt608::tt919::tt904::tt296::tt36::tt541::tt2028::tt110'
p500
sS'241'
p501
S'tt318::tt608::tt919::tt904::tt2028::tt541::tt296::tt194::tt1089::tt110'
p502
sS'240'
p503
S'tt318::tt50::tt608::tt904::tt919::tt296::tt36::tt541::tt110::tt2028'
p504
sS'243'
p505
S'tt318::tt50::tt608::tt2028::tt36::tt1089::tt194::tt745::tt1258::tt1198'
p506
sS'242'
p507
S'tt318::tt50::tt608::tt919::tt904::tt2028::tt36::tt541::tt1089::tt194'
p508
sS'615'
p509
S'tt318::tt50::tt919::tt904::tt2028::tt36::tt194::tt296::tt110::tt1258'
p510
sS'249'
p511
S'tt318::tt50::tt608::tt919::tt904::tt296::tt36::tt541::tt2028::tt110'
p512
sS'248'
p513
S'tt318::tt50::tt608::tt919::tt904::tt296::tt541::tt36::tt2028::tt110'
p514
sS'519'
p515
S'tt318::tt608::tt919::tt904::tt2028::tt36::tt541::tt1089::tt194::tt296'
p516
sS'518'
p517
S'tt318::tt50::tt608::tt919::tt904::tt2028::tt36::tt541::tt1089::tt194'
p518
sS'511'
p519
S'tt318::tt50::tt608::tt919::tt904::tt541::tt296::tt36::tt2028::tt110'
p520
sS'510'
p521
S'tt50::tt608::tt919::tt904::tt541::tt2028::tt110::tt1089::tt194::tt1198'
p522
sS'513'
p523
S'tt50::tt318::tt608::tt919::tt904::tt296::tt541::tt36::tt2028::tt110'
p524
sS'512'
p525
S'tt318::tt50::tt608::tt919::tt904::tt296::tt541::tt36::tt110::tt2028'
p526
sS'515'
p527
S'tt318::tt50::tt608::tt919::tt904::tt296::tt541::tt36::tt2028::tt110'
p528
sS'514'
p529
S'tt318::tt50::tt608::tt919::tt904::tt2028::tt541::tt1089::tt296::tt745'
p530
sS'517'
p531
S'tt50::tt318::tt608::tt296::tt919::tt904::tt541::tt36::tt110::tt2028'
p532
sS'516'
p533
S'tt318::tt50::tt608::tt919::tt904::tt2028::tt36::tt541::tt1089::tt194'
p534
sS'458'
p535
S'tt318::tt50::tt608::tt919::tt904::tt2028::tt36::tt541::tt194::tt1089'
p536
sS'459'
p537
S'tt318::tt50::tt608::tt904::tt919::tt541::tt296::tt36::tt2028::tt110'
p538
sS'621'
p539
S'tt318::tt50::tt608::tt904::tt541::tt36::tt2028::tt110::tt194::tt1198'
p540
sS'620'
p541
S'tt318::tt608::tt904::tt2028::tt541::tt36::tt194::tt1089::tt110::tt745'
p542
sS'627'
p543
S'tt608::tt919::tt904::tt2028::tt541::tt1089::tt194::tt745::tt1258::tt1198'
p544
sS'626'
p545
S'tt318::tt50::tt608::tt919::tt904::tt36::tt541::tt1089::tt194::tt296'
p546
sS'625'
p547
S'tt318::tt50::tt608::tt919::tt904::tt2028::tt36::tt541::tt1089::tt194'
p548
sS'624'
p549
S'tt318::tt904::tt2028::tt36::tt1089::tt194::tt296::tt110::tt1258::tt1198'
p550
sS'450'
p551
S'tt50::tt608::tt919::tt904::tt2028::tt36::tt1089::tt194::tt296::tt745'
p552
sS'451'
p553
S'tt318::tt50::tt608::tt919::tt904::tt2028::tt296::tt36::tt194::tt1089'
p554
sS'452'
p555
S'tt318::tt50::tt608::tt2028::tt36::tt541::tt194::tt296::tt745::tt593'
p556
sS'453'
p557
S'tt318::tt50::tt608::tt919::tt904::tt296::tt541::tt36::tt2028::tt110'
p558
sS'454'
p559
S'tt50::tt608::tt919::tt904::tt541::tt296::tt36::tt1089::tt194::tt745'
p560
sS'455'
p561
S'tt318::tt50::tt608::tt919::tt904::tt296::tt541::tt36::tt2028::tt110'
p562
sS'456'
p563
S'tt318::tt50::tt608::tt919::tt904::tt36::tt541::tt2028::tt296::tt1089'
p564
sS'457'
p565
S'tt318::tt608::tt919::tt904::tt36::tt2028::tt541::tt296::tt1089::tt194'
p566
sS'179'
p567
S'tt318::tt50::tt608::tt919::tt904::tt36::tt2028::tt541::tt296::tt1089'
p568
sS'178'
p569
S'tt318::tt50::tt904::tt36::tt2028::tt296::tt541::tt194::tt1089::tt745'
p570
sS'177'
p571
S'tt318::tt50::tt608::tt904::tt919::tt296::tt36::tt541::tt110::tt2028'
p572
sS'176'
p573
S'tt318::tt50::tt608::tt904::tt919::tt36::tt2028::tt194::tt1089::tt110'
p574
sS'175'
p575
S'tt318::tt50::tt608::tt904::tt2028::tt36::tt296::tt541::tt1089::tt194'
p576
sS'174'
p577
S'tt318::tt50::tt608::tt919::tt904::tt296::tt36::tt541::tt2028::tt110'
p578
sS'173'
p579
S'tt318::tt50::tt608::tt919::tt904::tt296::tt541::tt36::tt2028::tt110'
p580
sS'172'
p581
S'tt318::tt50::tt608::tt919::tt904::tt296::tt541::tt2028::tt36::tt110'
p582
sS'171'
p583
S'tt318::tt50::tt608::tt919::tt904::tt2028::tt36::tt296::tt541::tt1089'
p584
sS'170'
p585
S'tt50::tt318::tt608::tt919::tt904::tt296::tt36::tt541::tt2028::tt110'
p586
sS'656'
p587
S'tt318::tt50::tt608::tt904::tt919::tt36::tt2028::tt541::tt296::tt194'
p588
sS'657'
p589
S'tt318::tt50::tt608::tt904::tt919::tt36::tt296::tt2028::tt541::tt110'
p590
sS'654'
p591
S'tt318::tt50::tt608::tt904::tt919::tt36::tt2028::tt541::tt296::tt194'
p592
sS'253'
p593
S'tt318::tt50::tt608::tt919::tt904::tt2028::tt36::tt541::tt1089::tt194'
p594
sS'182'
p595
S'tt318::tt50::tt608::tt919::tt904::tt296::tt541::tt2028::tt110::tt194'
p596
sS'183'
p597
S'tt318::tt50::tt608::tt919::tt904::tt2028::tt296::tt541::tt1089::tt194'
p598
sS'180'
p599
S'tt50::tt318::tt296::tt608::tt904::tt919::tt36::tt541::tt110::tt1198'
p600
sS'181'
p601
S'tt318::tt50::tt608::tt919::tt904::tt296::tt541::tt36::tt2028::tt110'
p602
sS'186'
p603
S'tt318::tt50::tt608::tt919::tt904::tt296::tt36::tt541::tt110::tt2028'
p604
sS'187'
p605
S'tt318::tt50::tt608::tt919::tt904::tt36::tt2028::tt541::tt194::tt1089'
p606
sS'184'
p607
S'tt318::tt50::tt608::tt919::tt904::tt296::tt541::tt2028::tt36::tt110'
p608
sS'185'
p609
S'tt318::tt50::tt608::tt904::tt919::tt36::tt2028::tt541::tt194::tt1089'
p610
sS'652'
p611
S'tt318::tt50::tt608::tt919::tt904::tt2028::tt36::tt541::tt1089::tt296'
p612
sS'188'
p613
S'tt318::tt50::tt608::tt919::tt904::tt2028::tt36::tt541::tt1089::tt194'
p614
sS'189'
p615
S'tt318::tt50::tt608::tt919::tt904::tt36::tt296::tt541::tt2028::tt110'
p616
sS'658'
p617
S'tt318::tt50::tt608::tt919::tt904::tt296::tt541::tt36::tt110::tt2028'
p618
sS'653'
p619
S'tt318::tt50::tt608::tt919::tt904::tt2028::tt36::tt541::tt1089::tt194'
p620
sS'650'
p621
S'tt318::tt50::tt608::tt919::tt904::tt36::tt296::tt2028::tt541::tt110'
p622
sS'651'
p623
S'tt50::tt608::tt919::tt904::tt296::tt541::tt36::tt2028::tt110::tt1198'
p624
sS'11'
p625
S'tt318::tt50::tt608::tt919::tt904::tt296::tt36::tt541::tt2028::tt110'
p626
sS'10'
p627
S'tt50::tt608::tt919::tt904::tt36::tt2028::tt541::tt296::tt1089::tt194'
p628
sS'13'
p629
S'tt50::tt318::tt608::tt919::tt904::tt541::tt36::tt2028::tt1198::tt593'
p630
sS'12'
p631
S'tt318::tt50::tt608::tt919::tt904::tt296::tt541::tt36::tt2028::tt110'
p632
sS'15'
p633
S'tt50::tt608::tt904::tt2028::tt541::tt1089::tt194::tt296::tt1258::tt1198'
p634
sS'14'
p635
S'tt50::tt318::tt608::tt919::tt904::tt296::tt541::tt36::tt110::tt2028'
p636
sS'17'
p637
S'tt318::tt50::tt919::tt2028::tt541::tt1089::tt296::tt745::tt110::tt1258'
p638
sS'16'
p639
S'tt608::tt296::tt919::tt541::tt904::tt36::tt110::tt150::tt2028::tt1198'
p640
sS'19'
p641
S'tt318::tt608::tt919::tt904::tt2028::tt541::tt1089::tt194::tt296::tt745'
p642
sS'18'
p643
S'tt318::tt50::tt608::tt919::tt296::tt904::tt541::tt36::tt110::tt2028'
p644
sS'659'
p645
S'tt318::tt50::tt608::tt919::tt904::tt296::tt541::tt36::tt2028::tt110'
p646
sS'62'
p647
S'tt50::tt608::tt919::tt904::tt36::tt541::tt296::tt1089::tt110::tt194'
p648
sS'322'
p649
S'tt318::tt50::tt608::tt919::tt904::tt2028::tt541::tt296::tt36::tt194'
p650
sS'323'
p651
S'tt50::tt608::tt919::tt904::tt296::tt541::tt36::tt1198::tt2028::tt110'
p652
sS'320'
p653
S'tt50::tt608::tt919::tt36::tt2028::tt541::tt194::tt1089::tt745::tt110'
p654
sS'321'
p655
S'tt318::tt919::tt904::tt2028::tt36::tt541::tt1089::tt194::tt296::tt745'
p656
sS'326'
p657
S'tt318::tt50::tt608::tt904::tt2028::tt36::tt296::tt541::tt194::tt1089'
p658
sS'327'
p659
S'tt318::tt50::tt608::tt919::tt904::tt2028::tt36::tt541::tt296::tt1089'
p660
sS'324'
p661
S'tt50::tt608::tt919::tt904::tt296::tt36::tt541::tt2028::tt194::tt1089'
p662
sS'325'
p663
S'tt318::tt50::tt608::tt919::tt296::tt904::tt541::tt36::tt110::tt2028'
p664
sS'328'
p665
S'tt50::tt919::tt904::tt2028::tt36::tt541::tt1089::tt194::tt296::tt1258'
p666
sS'329'
p667
S'tt318::tt50::tt608::tt919::tt904::tt296::tt541::tt2028::tt36::tt110'
p668
sS'201'
p669
S'tt318::tt50::tt919::tt904::tt2028::tt36::tt541::tt1089::tt194::tt296'
p670
sS'200'
p671
S'tt318::tt50::tt608::tt919::tt904::tt36::tt541::tt1089::tt194::tt745'
p672
sS'203'
p673
S'tt318::tt50::tt608::tt919::tt904::tt296::tt36::tt2028::tt110::tt1089'
p674
sS'202'
p675
S'tt318::tt50::tt608::tt919::tt904::tt2028::tt36::tt541::tt1089::tt194'
p676
sS'205'
p677
S'tt318::tt50::tt608::tt904::tt2028::tt36::tt541::tt1089::tt194::tt296'
p678
sS'204'
p679
S'tt50::tt318::tt608::tt296::tt919::tt904::tt541::tt36::tt110::tt150'
p680
sS'207'
p681
S'tt50::tt318::tt296::tt608::tt919::tt904::tt541::tt36::tt110::tt1198'
p682
sS'206'
p683
S'tt318::tt50::tt608::tt919::tt904::tt36::tt296::tt2028::tt541::tt110'
p684
sS'209'
p685
S'tt318::tt50::tt608::tt919::tt904::tt36::tt2028::tt541::tt296::tt194'
p686
sS'208'
p687
S'tt318::tt50::tt608::tt919::tt904::tt296::tt541::tt36::tt2028::tt110'
p688
sS'77'
p689
S'tt50::tt608::tt919::tt904::tt2028::tt36::tt541::tt1089::tt194::tt745'
p690
sS'76'
p691
S'tt318::tt50::tt608::tt919::tt296::tt904::tt541::tt36::tt110::tt2028'
p692
sS'75'
p693
S'tt318::tt50::tt608::tt919::tt904::tt296::tt36::tt541::tt2028::tt1089'
p694
sS'74'
p695
S'tt318::tt50::tt608::tt919::tt904::tt2028::tt36::tt296::tt541::tt194'
p696
sS'73'
p697
S'tt318::tt50::tt608::tt919::tt904::tt2028::tt541::tt1089::tt194::tt296'
p698
sS'72'
p699
S'tt50::tt318::tt608::tt919::tt904::tt296::tt541::tt36::tt110::tt2028'
p700
sS'71'
p701
S'tt50::tt318::tt608::tt919::tt904::tt296::tt541::tt36::tt110::tt2028'
p702
sS'70'
p703
S'tt318::tt50::tt608::tt904::tt919::tt2028::tt541::tt296::tt194::tt1089'
p704
sS'655'
p705
S'tt318::tt50::tt608::tt919::tt904::tt2028::tt36::tt541::tt1089::tt194'
p706
sS'79'
p707
S'tt50::tt318::tt608::tt904::tt919::tt296::tt541::tt36::tt1198::tt110'
p708
sS'78'
p709
S'tt318::tt50::tt608::tt919::tt904::tt36::tt2028::tt296::tt541::tt194'
p710
sS'2'
p711
S'tt318::tt608::tt919::tt904::tt2028::tt36::tt541::tt1089::tt194::tt296'
p712
sS'669'
p713
S'tt318::tt50::tt608::tt919::tt904::tt296::tt541::tt36::tt110::tt2028'
p714
sS'668'
p715
S'tt50::tt608::tt919::tt904::tt296::tt541::tt36::tt2028::tt593::tt110'
p716
sS'667'
p717
S'tt318::tt50::tt608::tt919::tt904::tt36::tt296::tt541::tt2028::tt194'
p718
sS'666'
p719
S'tt318::tt50::tt608::tt296::tt919::tt904::tt541::tt36::tt110::tt2028'
p720
sS'665'
p721
S'tt318::tt50::tt608::tt904::tt919::tt541::tt296::tt36::tt2028::tt110'
p722
sS'664'
p723
S'tt608::tt919::tt904::tt36::tt194::tt296::tt745::tt1090::tt357::tt527'
p724
sS'663'
p725
S'tt50::tt318::tt608::tt919::tt904::tt296::tt541::tt36::tt110::tt150'
p726
sS'662'
p727
S'tt318::tt50::tt608::tt919::tt904::tt2028::tt36::tt541::tt1089::tt194'
p728
sS'661'
p729
S'tt318::tt50::tt608::tt919::tt904::tt296::tt541::tt36::tt2028::tt110'
p730
sS'660'
p731
S'tt318::tt50::tt608::tt919::tt904::tt36::tt541::tt296::tt2028::tt1089'
p732
sS'542'
p733
S'tt318::tt50::tt608::tt919::tt904::tt296::tt541::tt36::tt2028::tt110'
p734
sS'543'
p735
S'tt50::tt318::tt608::tt919::tt904::tt296::tt541::tt36::tt2028::tt110'
p736
sS'540'
p737
S'tt50::tt318::tt608::tt919::tt904::tt296::tt36::tt541::tt2028::tt1198'
p738
sS'541'
p739
S'tt318::tt50::tt608::tt919::tt904::tt296::tt541::tt36::tt2028::tt110'
p740
sS'546'
p741
S'tt318::tt50::tt608::tt919::tt904::tt2028::tt36::tt296::tt541::tt194'
p742
sS'547'
p743
S'tt318::tt608::tt919::tt904::tt2028::tt541::tt1089::tt194::tt296::tt745'
p744
sS'544'
p745
S'tt318::tt50::tt608::tt919::tt904::tt2028::tt36::tt541::tt194::tt745'
p746
sS'545'
p747
S'tt318::tt50::tt608::tt919::tt904::tt296::tt541::tt2028::tt36::tt1089'
p748
sS'8'
p749
S'tt318::tt50::tt608::tt919::tt904::tt2028::tt36::tt541::tt1089::tt194'
p750
sS'548'
p751
S'tt318::tt608::tt919::tt904::tt2028::tt541::tt1089::tt194::tt296::tt745'
p752
sS'549'
p753
S'tt318::tt608::tt919::tt904::tt296::tt541::tt36::tt2028::tt1089::tt110'
p754
sS'68'
p755
S'tt50::tt608::tt919::tt904::tt36::tt541::tt296::tt2028::tt1089::tt110'
p756
sS'598'
p757
S'tt318::tt50::tt608::tt904::tt36::tt541::tt1089::tt194::tt296::tt745'
p758
sS'120'
p759
S'tt318::tt608::tt919::tt904::tt2028::tt541::tt1089::tt194::tt745::tt110'
p760
sS'121'
p761
S'tt318::tt50::tt608::tt919::tt904::tt2028::tt36::tt541::tt1089::tt194'
p762
sS'122'
p763
S'tt318::tt50::tt608::tt919::tt904::tt296::tt541::tt36::tt2028::tt1198'
p764
sS'123'
p765
S'tt318::tt50::tt608::tt919::tt904::tt296::tt541::tt2028::tt36::tt110'
p766
sS'124'
p767
S'tt50::tt318::tt608::tt919::tt904::tt296::tt541::tt36::tt2028::tt110'
p768
sS'125'
p769
S'tt318::tt50::tt608::tt919::tt904::tt541::tt296::tt36::tt2028::tt1089'
p770
sS'126'
p771
S'tt318::tt50::tt608::tt919::tt904::tt296::tt36::tt541::tt2028::tt110'
p772
sS'127'
p773
S'tt318::tt50::tt608::tt919::tt904::tt296::tt36::tt541::tt2028::tt110'
p774
sS'128'
p775
S'tt318::tt50::tt608::tt919::tt904::tt541::tt296::tt2028::tt36::tt110'
p776
sS'129'
p777
S'tt318::tt50::tt608::tt296::tt919::tt904::tt541::tt36::tt110::tt2028'
p778
sS'414'
p779
S'tt318::tt50::tt608::tt919::tt904::tt296::tt36::tt541::tt2028::tt110'
p780
sS'415'
p781
S'tt318::tt50::tt608::tt919::tt904::tt296::tt541::tt36::tt2028::tt110'
p782
sS'416'
p783
S'tt50::tt318::tt608::tt919::tt904::tt296::tt541::tt36::tt110::tt2028'
p784
sS'417'
p785
S'tt50::tt318::tt608::tt919::tt904::tt296::tt541::tt36::tt2028::tt110'
p786
sS'410'
p787
S'tt50::tt318::tt608::tt919::tt904::tt296::tt541::tt36::tt2028::tt110'
p788
sS'411'
p789
S'tt318::tt50::tt919::tt904::tt296::tt36::tt541::tt2028::tt110::tt194'
p790
sS'412'
p791
S'tt608::tt919::tt904::tt2028::tt36::tt541::tt1089::tt194::tt745::tt1258'
p792
sS'413'
p793
S'tt50::tt318::tt608::tt296::tt904::tt919::tt541::tt36::tt110::tt1198'
p794
sS'498'
p795
S'tt318::tt50::tt608::tt919::tt904::tt296::tt36::tt541::tt2028::tt110'
p796
sS'418'
p797
S'tt318::tt50::tt608::tt919::tt904::tt2028::tt36::tt541::tt1089::tt194'
p798
sS'419'
p799
S'tt318::tt50::tt608::tt919::tt904::tt2028::tt36::tt541::tt296::tt1089'
p800
sS'499'
p801
S'tt318::tt50::tt608::tt919::tt904::tt296::tt541::tt36::tt2028::tt110'
p802
sS'319'
p803
S'tt318::tt50::tt608::tt919::tt904::tt296::tt541::tt36::tt2028::tt110'
p804
sS'318'
p805
S'tt50::tt318::tt608::tt296::tt919::tt904::tt541::tt1198::tt110::tt593'
p806
sS'313'
p807
S'tt318::tt50::tt608::tt919::tt904::tt2028::tt36::tt541::tt1089::tt194'
p808
sS'312'
p809
S'tt318::tt50::tt608::tt919::tt904::tt296::tt36::tt541::tt2028::tt110'
p810
sS'311'
p811
S'tt318::tt608::tt919::tt904::tt2028::tt36::tt541::tt1089::tt194::tt296'
p812
sS'310'
p813
S'tt318::tt50::tt608::tt919::tt904::tt296::tt541::tt36::tt2028::tt110'
p814
sS'317'
p815
S'tt318::tt50::tt608::tt919::tt904::tt296::tt541::tt36::tt2028::tt110'
p816
sS'316'
p817
S'tt318::tt50::tt608::tt919::tt904::tt36::tt2028::tt296::tt1089::tt194'
p818
sS'315'
p819
S'tt318::tt50::tt608::tt919::tt296::tt904::tt541::tt36::tt110::tt593'
p820
sS'314'
p821
S'tt318::tt50::tt608::tt919::tt904::tt36::tt541::tt2028::tt296::tt1089'
p822
sS'496'
p823
S'tt318::tt50::tt608::tt919::tt904::tt2028::tt36::tt541::tt1089::tt194'
p824
sS'497'
p825
S'tt318::tt50::tt608::tt919::tt904::tt2028::tt36::tt296::tt541::tt1089'
p826
sS'3'
p827
S'tt318::tt50::tt608::tt919::tt904::tt36::tt2028::tt541::tt194::tt1089'
p828
sS'368'
p829
S'tt318::tt50::tt608::tt919::tt904::tt2028::tt36::tt541::tt1089::tt194'
p830
sS'369'
p831
S'tt318::tt608::tt919::tt904::tt296::tt541::tt36::tt110::tt2028::tt194'
p832
sS'366'
p833
S'tt50::tt318::tt608::tt919::tt296::tt904::tt541::tt36::tt110::tt1198'
p834
sS'367'
p835
S'tt318::tt50::tt919::tt904::tt2028::tt36::tt541::tt194::tt296::tt745'
p836
sS'364'
p837
S'tt50::tt608::tt919::tt904::tt296::tt36::tt2028::tt110::tt194::tt1089'
p838
sS'365'
p839
S'tt318::tt50::tt608::tt919::tt904::tt2028::tt36::tt541::tt296::tt1089'
p840
sS'362'
p841
S'tt318::tt50::tt608::tt919::tt904::tt2028::tt36::tt1089::tt194::tt745'
p842
sS'363'
p843
S'tt318::tt608::tt919::tt904::tt2028::tt36::tt541::tt1089::tt194::tt296'
p844
sS'360'
p845
S'tt50::tt318::tt919::tt608::tt296::tt904::tt541::tt36::tt110::tt2028'
p846
sS'361'
p847
S'tt318::tt50::tt608::tt919::tt904::tt36::tt296::tt2028::tt541::tt1089'
p848
sS'380'
p849
S'tt50::tt919::tt904::tt2028::tt36::tt194::tt296::tt745::tt110::tt1258'
p850
sS'381'
p851
S'tt318::tt50::tt608::tt919::tt904::tt36::tt2028::tt541::tt296::tt1089'
p852
sS'382'
p853
S'tt50::tt608::tt919::tt904::tt2028::tt36::tt541::tt1089::tt194::tt296'
p854
sS'383'
p855
S'tt50::tt318::tt608::tt919::tt296::tt904::tt541::tt110::tt1198::tt150'
p856
sS'384'
p857
S'tt318::tt50::tt608::tt919::tt904::tt2028::tt36::tt541::tt1089::tt194'
p858
sS'385'
p859
S'tt318::tt50::tt608::tt919::tt904::tt2028::tt296::tt541::tt194::tt1089'
p860
sS'key'
p861
S'value'
p862
sS'387'
p863
S'tt318::tt50::tt608::tt919::tt904::tt2028::tt541::tt296::tt1089::tt194'
p864
sS'388'
p865
S'tt318::tt50::tt608::tt919::tt904::tt2028::tt541::tt1089::tt194::tt296'
p866
sS'389'
p867
S'tt318::tt50::tt608::tt919::tt904::tt36::tt2028::tt541::tt296::tt194'
p868
sS'605'
p869
S'tt318::tt50::tt608::tt919::tt904::tt2028::tt541::tt1089::tt194::tt296'
p870
sS'579'
p871
S'tt50::tt318::tt608::tt904::tt919::tt296::tt36::tt541::tt110::tt1198'
p872
sS'578'
p873
S'tt318::tt50::tt608::tt904::tt919::tt36::tt296::tt541::tt2028::tt110'
p874
sS'386'
p875
S'tt318::tt608::tt919::tt904::tt2028::tt36::tt296::tt541::tt1089::tt194'
p876
sS'604'
p877
S'tt318::tt50::tt608::tt919::tt904::tt541::tt36::tt296::tt2028::tt110'
p878
sS'573'
p879
S'tt318::tt50::tt608::tt919::tt904::tt36::tt296::tt541::tt2028::tt110'
p880
sS'572'
p881
S'tt608::tt919::tt904::tt36::tt541::tt2028::tt1089::tt110::tt194::tt745'
p882
sS'571'
p883
S'tt318::tt50::tt608::tt919::tt904::tt296::tt36::tt2028::tt541::tt1089'
p884
sS'570'
p885
S'tt318::tt50::tt919::tt904::tt2028::tt296::tt541::tt194::tt1089::tt745'
p886
sS'577'
p887
S'tt318::tt50::tt608::tt919::tt904::tt296::tt541::tt36::tt2028::tt110'
p888
sS'576'
p889
S'tt318::tt50::tt608::tt919::tt904::tt2028::tt36::tt296::tt1089::tt194'
p890
sS'575'
p891
S'tt50::tt608::tt919::tt904::tt2028::tt541::tt1089::tt194::tt296::tt745'
p892
sS'574'
p893
S'tt318::tt50::tt608::tt919::tt904::tt2028::tt36::tt541::tt1089::tt194'
p894
sS'60'
p895
S'tt318::tt50::tt919::tt904::tt36::tt2028::tt541::tt296::tt1089::tt194'
p896
sS'61'
p897
S'tt318::tt50::tt608::tt919::tt904::tt296::tt541::tt36::tt110::tt1198'
p898
sS'258'
p899
S'tt318::tt50::tt608::tt919::tt904::tt296::tt36::tt541::tt2028::tt1089'
p900
sS'259'
p901
S'tt318::tt50::tt608::tt919::tt904::tt541::tt36::tt2028::tt296::tt1089'
p902
sS'64'
p903
S'tt50::tt318::tt608::tt919::tt904::tt296::tt541::tt36::tt1198::tt2028'
p904
sS'65'
p905
S'tt318::tt50::tt608::tt919::tt904::tt296::tt541::tt36::tt2028::tt110'
p906
sS'66'
p907
S'tt318::tt50::tt608::tt919::tt904::tt36::tt541::tt296::tt2028::tt194'
p908
sS'67'
p909
S'tt318::tt50::tt608::tt919::tt904::tt2028::tt36::tt541::tt1089::tt194'
p910
sS'252'
p911
S'tt318::tt50::tt608::tt904::tt919::tt296::tt36::tt541::tt2028::tt110'
p912
sS'69'
p913
S'tt318::tt50::tt608::tt919::tt904::tt541::tt36::tt2028::tt1089::tt194'
p914
sS'250'
p915
S'tt318::tt50::tt608::tt904::tt919::tt36::tt296::tt541::tt110::tt194'
p916
sS'251'
p917
S'tt50::tt318::tt608::tt919::tt904::tt541::tt36::tt2028::tt1198::tt1089'
p918
sS'256'
p919
S'tt318::tt50::tt608::tt919::tt904::tt296::tt541::tt2028::tt36::tt110'
p920
sS'257'
p921
S'tt50::tt919::tt904::tt296::tt541::tt36::tt2028::tt194::tt1089::tt593'
p922
sS'254'
p923
S'tt318::tt50::tt608::tt919::tt904::tt2028::tt541::tt296::tt36::tt1089'
p924
sS'255'
p925
S'tt318::tt50::tt608::tt919::tt904::tt296::tt541::tt36::tt2028::tt110'
p926
sS'603'
p927
S'tt50::tt318::tt608::tt919::tt296::tt904::tt541::tt36::tt110::tt2028'
p928
sS'602'
p929
S'tt318::tt50::tt608::tt919::tt904::tt296::tt541::tt36::tt2028::tt110'
p930
sS'508'
p931
S'tt318::tt50::tt608::tt919::tt904::tt2028::tt36::tt541::tt1089::tt194'
p932
sS'509'
p933
S'tt50::tt2028::tt1089::tt296::tt110::tt1258::tt1198::tt1265::tt1090::tt1210'
p934
sS'506'
p935
S'tt50::tt318::tt608::tt919::tt904::tt296::tt541::tt36::tt2028::tt110'
p936
sS'507'
p937
S'tt318::tt50::tt608::tt904::tt919::tt36::tt2028::tt541::tt296::tt194'
p938
sS'504'
p939
S'tt318::tt50::tt608::tt296::tt919::tt904::tt541::tt2028::tt36::tt110'
p940
sS'505'
p941
S'tt318::tt50::tt608::tt919::tt904::tt36::tt2028::tt541::tt194::tt1089'
p942
sS'502'
p943
S'tt318::tt50::tt608::tt919::tt904::tt2028::tt36::tt541::tt1089::tt296'
p944
sS'503'
p945
S'tt318::tt608::tt919::tt904::tt296::tt36::tt2028::tt541::tt194::tt1089'
p946
sS'500'
p947
S'tt50::tt608::tt904::tt919::tt36::tt2028::tt541::tt296::tt194::tt1089'
p948
sS'501'
p949
S'tt318::tt919::tt904::tt541::tt1089::tt194::tt296::tt110::tt1258::tt1198'
p950
sS'630'
p951
S'tt50::tt318::tt608::tt919::tt296::tt904::tt541::tt36::tt2028::tt110'
p952
sS'631'
p953
S'tt318::tt50::tt608::tt919::tt904::tt36::tt296::tt541::tt2028::tt194'
p954
sS'632'
p955
S'tt50::tt608::tt904::tt919::tt296::tt36::tt541::tt2028::tt110::tt1198'
p956
sS'633'
p957
S'tt50::tt318::tt608::tt919::tt296::tt904::tt541::tt36::tt110::tt1198'
p958
sS'469'
p959
S'tt318::tt50::tt608::tt919::tt904::tt296::tt541::tt36::tt2028::tt110'
p960
sS'468'
p961
S'tt2028::tt36::tt1089::tt194::tt745::tt1258::tt1198::tt1265::tt1090::tt1210'
p962
sS'636'
p963
S'tt318::tt50::tt608::tt919::tt904::tt2028::tt36::tt296::tt541::tt194'
p964
sS'637'
p965
S'tt318::tt50::tt608::tt919::tt904::tt36::tt296::tt2028::tt541::tt194'
p966
sS'465'
p967
S'tt318::tt50::tt608::tt919::tt904::tt36::tt296::tt2028::tt541::tt1089'
p968
sS'464'
p969
S'tt318::tt50::tt608::tt919::tt904::tt2028::tt36::tt541::tt296::tt1089'
p970
sS'467'
p971
S'tt318::tt50::tt608::tt919::tt904::tt541::tt296::tt36::tt2028::tt1089'
p972
sS'466'
p973
S'tt318::tt919::tt904::tt2028::tt1089::tt194::tt745::tt110::tt1258::tt1198'
p974
sS'461'
p975
S'tt318::tt608::tt919::tt904::tt2028::tt541::tt1089::tt194::tt745::tt1258'
p976
sS'460'
p977
S'tt318::tt2028::tt36::tt541::tt1089::tt194::tt745::tt110::tt1258::tt1198'
p978
sS'463'
p979
S'tt318::tt50::tt608::tt919::tt904::tt36::tt2028::tt541::tt194::tt1089'
p980
sS'462'
p981
S'tt318::tt50::tt608::tt919::tt904::tt36::tt541::tt296::tt2028::tt1089'
p982
sS'168'
p983
S'tt318::tt608::tt919::tt904::tt2028::tt36::tt541::tt1089::tt194::tt296'
p984
sS'169'
p985
S'tt318::tt50::tt608::tt919::tt904::tt541::tt296::tt36::tt2028::tt1089'
p986
sS'164'
p987
S'tt50::tt919::tt36::tt2028::tt541::tt1089::tt194::tt745::tt1258::tt1198'
p988
sS'165'
p989
S'tt318::tt608::tt919::tt904::tt36::tt2028::tt541::tt296::tt1089::tt194'
p990
sS'166'
p991
S'tt318::tt50::tt919::tt904::tt296::tt541::tt2028::tt36::tt110::tt194'
p992
sS'167'
p993
S'tt318::tt50::tt608::tt919::tt296::tt904::tt541::tt36::tt2028::tt110'
p994
sS'160'
p995
S'tt318::tt50::tt608::tt919::tt904::tt296::tt541::tt2028::tt110::tt1089'
p996
sS'161'
p997
S'tt318::tt50::tt608::tt904::tt919::tt2028::tt541::tt296::tt194::tt1089'
p998
sS'162'
p999
S'tt318::tt50::tt608::tt919::tt904::tt2028::tt541::tt296::tt194::tt1089'
p1000
sS'163'
p1001
S'tt318::tt50::tt608::tt919::tt904::tt296::tt2028::tt541::tt36::tt110'
p1002
sS'600'
p1003
S'tt318::tt50::tt608::tt919::tt904::tt296::tt36::tt541::tt110::tt2028'
p1004
sS'9'
p1005
S'tt318::tt50::tt608::tt919::tt904::tt296::tt541::tt36::tt2028::tt110'
p1006
sS'647'
p1007
S'tt318::tt50::tt608::tt919::tt904::tt2028::tt36::tt541::tt194::tt296'
p1008
sS'646'
p1009
S'tt318::tt50::tt608::tt904::tt919::tt36::tt2028::tt541::tt296::tt194'
p1010
sS'649'
p1011
S'tt318::tt608::tt904::tt919::tt36::tt2028::tt541::tt296::tt194::tt1089'
p1012
sS'648'
p1013
S'tt50::tt608::tt919::tt904::tt2028::tt36::tt541::tt1089::tt194::tt296'
p1014
sS'357'
p1015
S'tt318::tt50::tt608::tt919::tt904::tt296::tt36::tt541::tt2028::tt110'
p1016
sS'356'
p1017
S'tt50::tt318::tt296::tt608::tt919::tt904::tt541::tt36::tt110::tt1198'
p1018
sS'355'
p1019
S'tt318::tt608::tt2028::tt36::tt194::tt745::tt1258::tt1198::tt1265::tt1210'
p1020
sS'354'
p1021
S'tt50::tt318::tt608::tt919::tt904::tt296::tt541::tt36::tt110::tt2028'
p1022
sS'353'
p1023
S'tt50::tt608::tt919::tt904::tt2028::tt541::tt36::tt194::tt1089::tt745'
p1024
sS'352'
p1025
S'tt318::tt50::tt608::tt919::tt904::tt2028::tt36::tt296::tt541::tt194'
p1026
sS'351'
p1027
S'tt318::tt50::tt608::tt919::tt904::tt36::tt296::tt541::tt2028::tt110'
p1028
sS'350'
p1029
S'tt318::tt608::tt919::tt2028::tt36::tt541::tt1089::tt194::tt296::tt745'
p1030
sS'359'
p1031
S'tt50::tt608::tt919::tt904::tt36::tt2028::tt541::tt296::tt1089::tt194'
p1032
sS'358'
p1033
S'tt318::tt50::tt608::tt919::tt904::tt2028::tt36::tt541::tt1089::tt194'
p1034
sS'216'
p1035
S'tt318::tt50::tt608::tt919::tt904::tt2028::tt36::tt296::tt541::tt1089'
p1036
sS'217'
p1037
S'tt318::tt50::tt608::tt919::tt2028::tt36::tt296::tt541::tt194::tt1089'
p1038
sS'214'
p1039
S'tt318::tt50::tt608::tt919::tt904::tt2028::tt541::tt1089::tt194::tt745'
p1040
sS'215'
p1041
S'tt318::tt50::tt919::tt904::tt36::tt296::tt2028::tt1089::tt194::tt110'
p1042
sS'212'
p1043
S'tt608::tt904::tt2028::tt541::tt194::tt745::tt110::tt1258::tt1198::tt1265'
p1044
sS'213'
p1045
S'tt318::tt50::tt904::tt2028::tt36::tt1089::tt194::tt296::tt745::tt1258'
p1046
sS'210'
p1047
S'tt50::tt318::tt608::tt919::tt904::tt296::tt541::tt36::tt2028::tt110'
p1048
sS'211'
p1049
S'tt318::tt50::tt608::tt919::tt904::tt296::tt36::tt541::tt2028::tt110'
p1050
sS'218'
p1051
S'tt50::tt608::tt919::tt904::tt296::tt36::tt2028::tt541::tt194::tt110'
p1052
sS'219'
p1053
S'tt318::tt608::tt919::tt904::tt2028::tt36::tt541::tt1089::tt194::tt745'
p1054
sS'289'
p1055
S'tt318::tt50::tt608::tt919::tt904::tt541::tt296::tt2028::tt36::tt110'
p1056
sS'288'
p1057
S'tt318::tt50::tt608::tt919::tt904::tt36::tt541::tt296::tt2028::tt1089'
p1058
sS'4'
p1059
S'tt318::tt50::tt608::tt919::tt904::tt2028::tt36::tt541::tt1089::tt194'
p1060
sS'281'
p1061
S'tt318::tt50::tt608::tt919::tt904::tt296::tt541::tt36::tt2028::tt110'
p1062
sS'280'
p1063
S'tt318::tt50::tt608::tt919::tt904::tt296::tt2028::tt541::tt36::tt110'
p1064
sS'283'
p1065
S'tt608::tt919::tt904::tt2028::tt541::tt1089::tt194::tt745::tt110::tt1258'
p1066
sS'282'
p1067
S'tt318::tt50::tt608::tt919::tt904::tt2028::tt36::tt541::tt1089::tt194'
p1068
sS'285'
p1069
S'tt318::tt50::tt608::tt919::tt904::tt2028::tt36::tt541::tt1089::tt194'
p1070
sS'284'
p1071
S'tt318::tt50::tt608::tt919::tt904::tt296::tt541::tt36::tt2028::tt110'
p1072
sS'287'
p1073
S'tt318::tt50::tt608::tt904::tt2028::tt36::tt296::tt541::tt194::tt1089'
p1074
sS'286'
p1075
S'tt318::tt50::tt608::tt919::tt904::tt296::tt36::tt541::tt2028::tt110'
p1076
sS'670'
p1077
S'tt318::tt50::tt608::tt919::tt904::tt296::tt541::tt2028::tt110::tt194'
p1078
sS'671'
p1079
S'tt318::tt904::tt2028::tt541::tt1089::tt194::tt110::tt1258::tt1198::tt1265'
p1080
sS'672'
p1081
S'tt318::tt50::tt608::tt904::tt919::tt36::tt2028::tt541::tt296::tt194'
p1082
sS'673'
p1083
S'tt50::tt318::tt608::tt919::tt904::tt296::tt541::tt36::tt110::tt2028'
p1084
sS'263'
p1085
S'tt50::tt608::tt919::tt904::tt36::tt2028::tt541::tt194::tt1089::tt745'
p1086
sS'262'
p1087
S'tt318::tt50::tt608::tt919::tt904::tt296::tt541::tt36::tt2028::tt1089'
p1088
sS'261'
p1089
S'tt318::tt50::tt608::tt919::tt904::tt36::tt296::tt2028::tt541::tt194'
p1090
sS'260'
p1091
S'tt318::tt50::tt608::tt919::tt904::tt541::tt296::tt36::tt2028::tt1089'
p1092
sS'267'
p1093
S'tt318::tt608::tt919::tt904::tt36::tt2028::tt541::tt296::tt194::tt745'
p1094
sS'266'
p1095
S'tt318::tt608::tt919::tt904::tt296::tt36::tt541::tt2028::tt194::tt1089'
p1096
sS'265'
p1097
S'tt318::tt50::tt608::tt919::tt2028::tt541::tt1089::tt194::tt296::tt745'
p1098
sS'264'
p1099
S'tt318::tt50::tt608::tt919::tt904::tt296::tt36::tt541::tt2028::tt110'
p1100
sS'269'
p1101
S'tt318::tt50::tt608::tt919::tt904::tt36::tt296::tt2028::tt541::tt194'
p1102
sS'268'
p1103
S'tt919::tt904::tt2028::tt36::tt1089::tt194::tt296::tt745::tt1258::tt1198'
p1104
sS'59'
p1105
S'tt50::tt608::tt919::tt904::tt541::tt36::tt2028::tt1089::tt593::tt1198'
p1106
sS'58'
p1107
S'tt318::tt50::tt608::tt919::tt904::tt296::tt541::tt36::tt110::tt2028'
p1108
sS'55'
p1109
S'tt50::tt318::tt608::tt919::tt904::tt296::tt36::tt541::tt110::tt1198'
p1110
sS'54'
p1111
S'tt50::tt608::tt919::tt904::tt541::tt296::tt2028::tt36::tt110::tt1089'
p1112
sS'57'
p1113
S'tt318::tt50::tt608::tt919::tt904::tt2028::tt541::tt296::tt36::tt194'
p1114
sS'56'
p1115
S'tt608::tt919::tt904::tt2028::tt36::tt194::tt745::tt110::tt1265::tt593'
p1116
sS'51'
p1117
S'tt318::tt50::tt608::tt296::tt919::tt904::tt36::tt541::tt110::tt593'
p1118
sS'50'
p1119
S'tt318::tt50::tt608::tt904::tt919::tt296::tt541::tt36::tt2028::tt110'
p1120
sS'53'
p1121
S'tt318::tt50::tt608::tt919::tt904::tt36::tt541::tt2028::tt296::tt1089'
p1122
sS'52'
p1123
S'tt318::tt50::tt608::tt919::tt904::tt296::tt36::tt541::tt2028::tt194'
p1124
sS'537'
p1125
S'tt318::tt50::tt608::tt919::tt904::tt2028::tt541::tt1089::tt745::tt110'
p1126
sS'536'
p1127
S'tt318::tt50::tt608::tt919::tt904::tt36::tt541::tt296::tt2028::tt1089'
p1128
sS'535'
p1129
S'tt318::tt50::tt608::tt919::tt904::tt2028::tt541::tt296::tt36::tt194'
p1130
sS'63'
p1131
S'tt318::tt50::tt608::tt919::tt904::tt296::tt541::tt36::tt110::tt2028'
p1132
sS'533'
p1133
S'tt50::tt608::tt919::tt904::tt2028::tt1089::tt194::tt296::tt745::tt1258'
p1134
sS'532'
p1135
S'tt318::tt50::tt608::tt919::tt904::tt296::tt36::tt2028::tt541::tt1089'
p1136
sS'531'
p1137
S'tt318::tt50::tt608::tt919::tt904::tt2028::tt36::tt296::tt194::tt1089'
p1138
sS'530'
p1139
S'tt318::tt50::tt608::tt919::tt904::tt2028::tt36::tt541::tt296::tt1089'
p1140
sS'539'
p1141
S'tt318::tt608::tt919::tt904::tt296::tt541::tt36::tt2028::tt110::tt1198'
p1142
sS'538'
p1143
S'tt318::tt50::tt608::tt919::tt904::tt296::tt36::tt541::tt2028::tt1089'
p1144
sS'115'
p1145
S'tt50::tt318::tt608::tt919::tt296::tt904::tt541::tt36::tt110::tt2028'
p1146
sS'114'
p1147
S'tt318::tt50::tt608::tt919::tt904::tt36::tt541::tt296::tt2028::tt1089'
p1148
sS'117'
p1149
S'tt318::tt50::tt608::tt919::tt904::tt296::tt541::tt36::tt2028::tt110'
p1150
sS'116'
p1151
S'tt50::tt608::tt919::tt904::tt296::tt36::tt541::tt2028::tt1089::tt110'
p1152
sS'111'
p1153
S'tt608::tt919::tt904::tt2028::tt36::tt1089::tt194::tt745::tt1258::tt1198'
p1154
sS'110'
p1155
S'tt318::tt50::tt608::tt904::tt919::tt36::tt541::tt296::tt2028::tt110'
p1156
sS'113'
p1157
S'tt50::tt318::tt608::tt919::tt904::tt296::tt541::tt36::tt2028::tt110'
p1158
sS'112'
p1159
S'tt318::tt50::tt608::tt919::tt904::tt296::tt541::tt36::tt2028::tt1198'
p1160
sS'119'
p1161
S'tt608::tt919::tt904::tt2028::tt1089::tt194::tt296::tt745::tt110::tt1258'
p1162
sS'118'
p1163
S'tt318::tt50::tt608::tt919::tt904::tt2028::tt194::tt296::tt745::tt110'
p1164
sS'429'
p1165
S'tt318::tt50::tt608::tt919::tt904::tt2028::tt541::tt296::tt36::tt194'
p1166
sS'428'
p1167
S'tt318::tt608::tt919::tt904::tt2028::tt36::tt541::tt1089::tt194::tt296'
p1168
sS'534'
p1169
S'tt318::tt50::tt608::tt919::tt904::tt296::tt541::tt36::tt110::tt2028'
p1170
sS'421'
p1171
S'tt318::tt50::tt608::tt919::tt904::tt36::tt2028::tt541::tt296::tt1089'
p1172
sS'420'
p1173
S'tt318::tt50::tt608::tt919::tt904::tt296::tt36::tt2028::tt194::tt1089'
p1174
sS'423'
p1175
S'tt50::tt919::tt2028::tt36::tt1089::tt194::tt1258::tt1265::tt593::tt1210'
p1176
sS'422'
p1177
S'tt318::tt50::tt608::tt919::tt904::tt2028::tt36::tt541::tt1089::tt194'
p1178
sS'425'
p1179
S'tt318::tt50::tt608::tt919::tt904::tt541::tt296::tt36::tt2028::tt110'
p1180
sS'424'
p1181
S'tt50::tt318::tt919::tt608::tt296::tt904::tt541::tt36::tt110::tt2028'
p1182
sS'427'
p1183
S'tt318::tt50::tt608::tt919::tt904::tt2028::tt36::tt541::tt1089::tt194'
p1184
sS'426'
p1185
S'tt50::tt608::tt919::tt904::tt36::tt541::tt1089::tt194::tt296::tt745'
p1186
sS'308'
p1187
S'tt50::tt318::tt608::tt919::tt904::tt296::tt541::tt36::tt110::tt1198'
p1188
sS'309'
p1189
S'tt50::tt919::tt904::tt2028::tt36::tt541::tt194::tt745::tt110::tt1258'
p1190
sS'300'
p1191
S'tt318::tt50::tt608::tt919::tt904::tt36::tt2028::tt541::tt296::tt194'
p1192
sS'301'
p1193
S'tt318::tt50::tt608::tt919::tt904::tt296::tt36::tt541::tt110::tt2028'
p1194
sS'302'
p1195
S'tt318::tt50::tt608::tt919::tt904::tt2028::tt541::tt296::tt36::tt194'
p1196
sS'303'
p1197
S'tt608::tt919::tt904::tt2028::tt36::tt541::tt1089::tt194::tt745::tt110'
p1198
sS'304'
p1199
S'tt318::tt608::tt919::tt904::tt296::tt541::tt36::tt2028::tt110::tt1089'
p1200
sS'305'
p1201
S'tt318::tt50::tt608::tt919::tt904::tt296::tt36::tt541::tt2028::tt110'
p1202
sS'306'
p1203
S'tt318::tt50::tt608::tt919::tt904::tt296::tt541::tt2028::tt36::tt194'
p1204
sS'307'
p1205
S'tt318::tt50::tt608::tt919::tt904::tt296::tt541::tt36::tt2028::tt110'
p1206
sS'568'
p1207
S'tt50::tt318::tt608::tt919::tt904::tt296::tt541::tt36::tt2028::tt110'
p1208
sS'569'
p1209
S'tt318::tt50::tt608::tt919::tt904::tt296::tt36::tt541::tt2028::tt194'
p1210
sS'560'
p1211
S'tt318::tt50::tt608::tt904::tt919::tt36::tt2028::tt541::tt194::tt1089'
p1212
sS'561'
p1213
S'tt318::tt50::tt608::tt919::tt904::tt2028::tt36::tt541::tt1089::tt194'
p1214
sS'562'
p1215
S'tt318::tt50::tt608::tt919::tt904::tt2028::tt541::tt1089::tt194::tt296'
p1216
sS'563'
p1217
S'tt318::tt50::tt919::tt904::tt36::tt1089::tt194::tt296::tt745::tt110'
p1218
sS'564'
p1219
S'tt318::tt50::tt608::tt919::tt904::tt2028::tt36::tt541::tt296::tt1089'
p1220
sS'565'
p1221
S'tt50::tt318::tt608::tt919::tt904::tt296::tt541::tt36::tt2028::tt110'
p1222
sS'566'
p1223
S'tt50::tt318::tt608::tt919::tt904::tt296::tt541::tt36::tt2028::tt110'
p1224
sS'567'
p1225
S'tt318::tt608::tt919::tt904::tt296::tt36::tt541::tt1198::tt110::tt2028'
p1226
sS'229'
p1227
S'tt318::tt50::tt608::tt919::tt904::tt296::tt541::tt36::tt2028::tt110'
p1228
sS'228'
p1229
S'tt318::tt50::tt608::tt919::tt904::tt296::tt541::tt36::tt2028::tt110'
p1230
sS'227'
p1231
S'tt318::tt50::tt608::tt919::tt904::tt296::tt541::tt36::tt2028::tt1198'
p1232
sS'226'
p1233
S'tt50::tt608::tt919::tt904::tt296::tt36::tt541::tt2028::tt110::tt593'
p1234
sS'225'
p1235
S'tt318::tt50::tt608::tt919::tt904::tt36::tt541::tt296::tt2028::tt1089'
p1236
sS'224'
p1237
S'tt318::tt50::tt608::tt919::tt904::tt36::tt2028::tt541::tt296::tt1089'
p1238
sS'223'
p1239
S'tt50::tt318::tt608::tt296::tt919::tt904::tt541::tt36::tt110::tt2028'
p1240
sS'222'
p1241
S'tt318::tt50::tt608::tt919::tt904::tt296::tt36::tt541::tt2028::tt110'
p1242
sS'221'
p1243
S'tt318::tt50::tt608::tt919::tt904::tt296::tt36::tt541::tt2028::tt110'
p1244
sS'220'
p1245
S'tt318::tt50::tt608::tt919::tt2028::tt541::tt194::tt296::tt745::tt1258'
p1246
sS'391'
p1247
S'tt318::tt50::tt608::tt919::tt904::tt296::tt541::tt36::tt2028::tt110'
p1248
sS'390'
p1249
S'tt318::tt50::tt608::tt904::tt919::tt296::tt36::tt541::tt2028::tt110'
p1250
sS'151'
p1251
S'tt318::tt608::tt296::tt919::tt904::tt541::tt36::tt110::tt1198::tt150'
p1252
sS'150'
p1253
S'tt318::tt608::tt919::tt904::tt2028::tt36::tt541::tt1089::tt194::tt745'
p1254
sS'153'
p1255
S'tt318::tt50::tt608::tt296::tt904::tt919::tt541::tt36::tt150::tt110'
p1256
sS'152'
p1257
S'tt50::tt608::tt919::tt904::tt2028::tt36::tt541::tt1089::tt194::tt745'
p1258
sS'155'
p1259
S'tt318::tt50::tt608::tt919::tt904::tt2028::tt36::tt541::tt1089::tt194'
p1260
sS'154'
p1261
S'tt318::tt50::tt608::tt919::tt904::tt296::tt36::tt541::tt2028::tt110'
p1262
sS'157'
p1263
S'tt318::tt608::tt919::tt904::tt2028::tt36::tt1089::tt194::tt745::tt110'
p1264
sS'156'
p1265
S'tt318::tt50::tt608::tt919::tt904::tt296::tt541::tt36::tt110::tt2028'
p1266
sS'159'
p1267
S'tt318::tt608::tt919::tt904::tt2028::tt36::tt541::tt1089::tt194::tt296'
p1268
sS'158'
p1269
S'tt318::tt50::tt608::tt919::tt904::tt296::tt36::tt541::tt2028::tt110'
p1270
sS'609'
p1271
S'tt318::tt50::tt608::tt904::tt919::tt541::tt36::tt2028::tt110::tt194'
p1272
sS'608'
p1273
S'tt318::tt50::tt608::tt919::tt904::tt2028::tt194::tt296::tt745::tt110'
p1274
sS'634'
p1275
S'tt318::tt50::tt608::tt919::tt904::tt296::tt541::tt36::tt2028::tt1089'
p1276
sS'399'
p1277
S'tt50::tt318::tt608::tt919::tt904::tt296::tt541::tt36::tt110::tt1198'
p1278
sS'635'
p1279
S'tt608::tt919::tt904::tt36::tt541::tt2028::tt110::tt593::tt1198::tt194'
p1280
sS'398'
p1281
S'tt318::tt50::tt608::tt919::tt904::tt36::tt541::tt296::tt2028::tt1089'
p1282
sS'48'
p1283
S'tt318::tt50::tt608::tt919::tt904::tt2028::tt36::tt1089::tt194::tt745'
p1284
sS'49'
p1285
S'tt50::tt318::tt608::tt919::tt904::tt296::tt541::tt36::tt110::tt1198'
p1286
sS'46'
p1287
S'tt50::tt318::tt608::tt296::tt919::tt541::tt904::tt36::tt150::tt110'
p1288
sS'47'
p1289
S'tt318::tt608::tt919::tt904::tt2028::tt36::tt541::tt296::tt1089::tt194'
p1290
sS'44'
p1291
S'tt318::tt50::tt608::tt919::tt904::tt2028::tt36::tt541::tt1089::tt194'
p1292
sS'45'
p1293
S'tt318::tt50::tt608::tt919::tt904::tt296::tt36::tt541::tt2028::tt110'
p1294
sS'42'
p1295
S'tt318::tt50::tt608::tt919::tt904::tt2028::tt36::tt541::tt1089::tt194'
p1296
sS'43'
p1297
S'tt318::tt50::tt608::tt919::tt904::tt36::tt2028::tt296::tt541::tt194'
p1298
sS'40'
p1299
S'tt318::tt608::tt919::tt904::tt36::tt296::tt541::tt2028::tt1089::tt194'
p1300
sS'41'
p1301
S'tt318::tt50::tt608::tt919::tt904::tt2028::tt36::tt541::tt1089::tt194'
p1302
sS'638'
p1303
S'tt318::tt50::tt608::tt919::tt904::tt36::tt541::tt296::tt2028::tt110'
p1304
sS'5'
p1305
S'tt318::tt50::tt608::tt904::tt2028::tt36::tt541::tt1089::tt194::tt296'
p1306
sS'639'
p1307
S'tt318::tt50::tt608::tt919::tt904::tt2028::tt36::tt541::tt1089::tt194'
p1308
sS'489'
p1309
S'tt50::tt318::tt608::tt296::tt919::tt904::tt541::tt36::tt110::tt150'
p1310
sS'488'
p1311
S'tt318::tt50::tt608::tt919::tt904::tt296::tt36::tt541::tt110::tt2028'
p1312
sS'487'
p1313
S'tt50::tt318::tt608::tt296::tt919::tt904::tt541::tt36::tt110::tt2028'
p1314
sS'486'
p1315
S'tt318::tt50::tt608::tt919::tt904::tt541::tt296::tt36::tt2028::tt110'
p1316
sS'485'
p1317
S'tt318::tt50::tt608::tt919::tt904::tt296::tt2028::tt541::tt36::tt110'
p1318
sS'484'
p1319
S'tt318::tt50::tt608::tt919::tt296::tt904::tt541::tt36::tt110::tt2028'
p1320
sS'483'
p1321
S'tt318::tt50::tt608::tt904::tt919::tt296::tt541::tt36::tt2028::tt110'
p1322
sS'482'
p1323
S'tt318::tt50::tt608::tt919::tt904::tt296::tt541::tt36::tt2028::tt1198'
p1324
sS'481'
p1325
S'tt50::tt904::tt2028::tt36::tt541::tt1089::tt194::tt296::tt745::tt110'
p1326
sS'480'
p1327
S'tt318::tt608::tt919::tt904::tt2028::tt36::tt541::tt1089::tt194::tt745'
p1328
sS'472'
p1329
S'tt318::tt919::tt2028::tt541::tt1089::tt194::tt296::tt745::tt110::tt1258'
p1330
sS'473'
p1331
S'tt318::tt50::tt608::tt919::tt904::tt2028::tt36::tt541::tt1089::tt194'
p1332
sS'470'
p1333
S'tt50::tt608::tt919::tt904::tt36::tt541::tt2028::tt1089::tt194::tt110'
p1334
sS'471'
p1335
S'tt318::tt50::tt608::tt904::tt2028::tt36::tt1089::tt194::tt296::tt745'
p1336
sS'476'
p1337
S'tt318::tt50::tt608::tt919::tt904::tt296::tt541::tt36::tt2028::tt1089'
p1338
sS'477'
p1339
S'tt50::tt318::tt608::tt919::tt904::tt296::tt541::tt36::tt110::tt2028'
p1340
sS'474'
p1341
S'tt318::tt50::tt608::tt904::tt296::tt36::tt541::tt2028::tt110::tt1089'
p1342
sS'475'
p1343
S'tt318::tt50::tt608::tt919::tt904::tt36::tt1089::tt194::tt296::tt745'
p1344
sS'478'
p1345
S'tt318::tt50::tt608::tt919::tt904::tt36::tt296::tt541::tt1089::tt194'
p1346
sS'479'
p1347
S'tt50::tt318::tt608::tt296::tt904::tt919::tt541::tt36::tt110::tt1198'
p1348
s.