(dp0
S'tt4285594'
p1
S'tt4103972(remains of the day, the (1993))::tt0109579(death and the maiden (1994))::tt0114496(something to talk about (1995))::tt0111256(speechless (1994))::tt0111301(street fighter (1994))'
p2
sS'tt0059448'
p3
S'tt4103972(remains of the day, the (1993))::tt0257315(my family (1995))::tt0109891(getting even with dad (1994))::tt0109579(death and the maiden (1994))::tt0109198(bad girls (1994))'
p4
sS'tt1971397'
p5
S'tt2167202(getaway, the (1994))::tt0115645(before and after (1996))::tt0360307(richie rich (1994))::tt0038650(wonderful, horrible life of leni riefenstahl, the (macht der bilder: leni riefenstahl, die) (1993))::tt0115639(beautiful girls (1996))'
p6
sS'tt0079758'
p7
S'tt0230877(three musketeers, the (1993))::tt0050022(gumby: the movie (1995))::tt0109891(getting even with dad (1994))::tt3446062(babysitter, the (1995))::tt1595032(underneath (1995))'
p8
sS'tt0113552'
p9
S'tt0109891(getting even with dad (1994))::tt0360307(richie rich (1994))::tt0112435(baby-sitters club, the (1995))::tt0111127(serial mom (1994))::tt0111742(wolf (1994))'
p10
sS'tt0113492'
p11
S'tt0112572(brady bunch movie, the (1995))::tt3507484(flesh and bone (1993))::tt0499556(war, the (1994))::tt0111333(swan princess, the (1994))::tt0111003(puppet masters, the (1994))'
p12
sS'tt0113497'
p13
S'tt1595032(underneath (1995))::tt0111256(speechless (1994))::tt0109891(getting even with dad (1994))::tt0109579(death and the maiden (1994))::tt0109198(bad girls (1994))'
p14
sS'tt0114131'
p15
S'tt4103972(remains of the day, the (1993))::tt0107554(menace ii society (1993))::tt0113089(fluke (1995))::tt0779794(boys life (1995))::tt0109579(death and the maiden (1994))'
p16
sS'tt0112384'
p17
S'tt0111127(serial mom (1994))::tt0360307(richie rich (1994))::tt0114478(smoke (1995))::tt0115639(beautiful girls (1996))::tt0147800(hate (haine, la) (1995))'
p18
sS'tt0103859'
p19
S'tt0360307(richie rich (1994))::tt0230877(three musketeers, the (1993))::tt0257315(my family (1995))::tt0113749(mallrats (1995))::tt0050022(gumby: the movie (1995))'
p20
sS'tt0113158'
p21
S'tt0147800(hate (haine, la) (1995))::tt4103972(remains of the day, the (1993))::tt0058450(umbrellas of cherbourg, the (parapluies de cherbourg, les) (1964))::tt0114496(something to talk about (1995))::tt0117002(mary reilly (1996))'
p22
sS'tt0109450'
p23
S'tt0114496(something to talk about (1995))::tt3446062(babysitter, the (1995))::tt0230877(three musketeers, the (1993))::tt0109198(bad girls (1994))::tt0360307(richie rich (1994))'
p24
sS'tt0109456'
p25
S'tt0230877(three musketeers, the (1993))::tt0114496(something to talk about (1995))::tt0109579(death and the maiden (1994))::tt3446062(babysitter, the (1995))::tt0109642(dolores claiborne (1995))'
p26
sS'tt0109454'
p27
S'tt3446062(babysitter, the (1995))::tt0111003(puppet masters, the (1994))::tt1595032(underneath (1995))::tt0103639(aladdin (1992))::tt0114496(something to talk about (1995))'
p28
sS'tt0114095'
p29
S'tt0114496(something to talk about (1995))::tt4103972(remains of the day, the (1993))::tt0111256(speechless (1994))::tt0360307(richie rich (1994))::tt0109642(dolores claiborne (1995))'
p30
sS'tt0111590'
p31
S'tt0380167(addiction, the (1995))::tt0114496(something to talk about (1995))::tt0111161(shawshank redemption, the (1994))::tt0107507(manhattan murder mystery (1993))::tt0109579(death and the maiden (1994))'
p32
sS'tt0112637'
p33
S'tt0114885(waiting to exhale (1995))::tt0074102(in the realm of the senses (ai no corrida) (1976))::83(once upon a time... when we were colored (1995))::499(mr. wonderful (1993))::tt0109198(bad girls (1994))'
p34
sS'tt0113729'
p35
S'tt0106677(dazed and confused (1993))::tt0108122(short cuts (1993))::tt0109306(blue sky (1994))::tt0117002(mary reilly (1996))::tt0112579(bridges of madison county, the (1995))'
p36
sS'tt0109913'
p37
S'tt0111256(speechless (1994))::tt0111127(serial mom (1994))::tt0113228(grumpier old men (1995))::tt0360307(richie rich (1994))::tt0114296(roommates (1995))'
p38
sS'tt0097103'
p39
S'tt1595032(underneath (1995))::tt0107206(in the line of fire (1993))::tt0114496(something to talk about (1995))::tt0499556(war, the (1994))::tt0230877(three musketeers, the (1993))'
p40
sS'tt0110353'
p41
S'tt0113277(heat (1995))::tt0115645(before and after (1996))::tt0257315(my family (1995))::tt0360307(richie rich (1994))::tt0109198(bad girls (1994))'
p42
sS'tt0111693'
p43
S'tt0114496(something to talk about (1995))::tt0058450(umbrellas of cherbourg, the (parapluies de cherbourg, les) (1964))::tt4103972(remains of the day, the (1993))::tt3446062(babysitter, the (1995))::tt0109891(getting even with dad (1994))'
p44
sS'tt0110357'
p45
S'tt0109891(getting even with dad (1994))::tt0779794(boys life (1995))::tt0114496(something to talk about (1995))::tt0257315(my family (1995))::tt0230877(three musketeers, the (1993))'
p46
sS'tt0110428'
p47
S'tt0230877(three musketeers, the (1993))::tt0111742(wolf (1994))::tt0050022(gumby: the movie (1995))::tt0779794(boys life (1995))::tt0109579(death and the maiden (1994))'
p48
sS'tt0844330'
p49
S'tt0114296(roommates (1995))::tt0114496(something to talk about (1995))::tt0108122(short cuts (1993))::tt0111400(terminal velocity (1994))::tt3446062(babysitter, the (1995))'
p50
sS'tt0111503'
p51
S'tt0114496(something to talk about (1995))::tt1595032(underneath (1995))::tt0114296(roommates (1995))::tt0230877(three musketeers, the (1993))::tt0280486(bad company (1995))'
p52
sS'tt0111112'
p53
S'tt0111127(serial mom (1994))::tt0360307(richie rich (1994))::tt3446062(babysitter, the (1995))::tt0106965(free willy (1993))::tt0109361(cabin boy (1994))'
p54
sS'tt2993648'
p55
S'tt1595032(underneath (1995))::tt0111256(speechless (1994))::tt0109450(cobb (1994))::tt0779794(boys life (1995))::tt0109198(bad girls (1994))'
p56
sS'tt0106977'
p57
S'tt0107057(guilty as sin (1993))::tt0115645(before and after (1996))::tt0499556(war, the (1994))::tt0106292(another stakeout (1993))::tt0113501(just cause (1995))'
p58
sS'tt0114436'
p59
S'tt0109306(blue sky (1994))::tt0109813(flintstones, the (1994))::tt0109484(corrina, corrina (1994))::tt0111256(speechless (1994))::tt0038650(wonderful, horrible life of leni riefenstahl, the (macht der bilder: leni riefenstahl, die) (1993))'
p60
sS'tt0106873'
p61
S'tt3446062(babysitter, the (1995))::tt0499556(war, the (1994))::tt0114496(something to talk about (1995))::tt2167202(getaway, the (1994))::tt0115645(before and after (1996))'
p62
sS'tt0111054'
p63
S'tt0779794(boys life (1995))::tt0109891(getting even with dad (1994))::tt0111127(serial mom (1994))::tt0111488(trial by jury (1994))::tt4103972(remains of the day, the (1993))'
p64
sS'tt0435506'
p65
S'498 (mr. jones (1993))::tt0380167(addiction, the (1995))::tt0109579(death and the maiden (1994))::tt0079758(prophecy, the (1995))::tt4103972(remains of the day, the (1993))'
p66
sS'tt0110907'
p67
S'tt0230877(three musketeers, the (1993))::tt0111256(speechless (1994))::tt0114496(something to talk about (1995))::tt0112579(bridges of madison county, the (1995))::tt0114478(smoke (1995))'
p68
sS'tt0108399'
p69
S'tt0106452(body snatchers (1993))::tt0112744(crossing guard, the (1995))::tt0360307(richie rich (1994))::tt0111756(wyatt earp (1994))::tt0111333(swan princess, the (1994))'
p70
sS'tt0115645'
p71
S'tt0779794(boys life (1995))::tt0230877(three musketeers, the (1993))::tt0109891(getting even with dad (1994))::tt0108174(so i married an axe murderer (1993))::tt0114496(something to talk about (1995))'
p72
sS'tt0112445'
p73
S'tt0109579(death and the maiden (1994))::tt1781922(no escape (1994))::tt0111127(serial mom (1994))::tt0114852(village of the damned (1995))::tt1595032(underneath (1995))'
p74
sS'tt0106471'
p75
S'tt0109891(getting even with dad (1994))::tt0109579(death and the maiden (1994))::tt0114496(something to talk about (1995))::tt0107554(menace ii society (1993))::tt4103972(remains of the day, the (1993))'
p76
sS'tt0106473'
p77
S'tt0114478(smoke (1995))::tt0360307(richie rich (1994))::tt0230877(three musketeers, the (1993))::tt0074102(in the realm of the senses (ai no corrida) (1976))::tt0109579(death and the maiden (1994))'
p78
sS'tt0112442'
p79
S'tt0113089(fluke (1995))::tt2167202(getaway, the (1994))::tt0109579(death and the maiden (1994))::tt0111742(wolf (1994))::tt0112572(brady bunch movie, the (1995))'
p80
sS'tt0109676'
p81
S'tt0111400(terminal velocity (1994))::tt0280486(bad company (1995))::tt0111742(wolf (1994))::tt0499556(war, the (1994))::tt0110622(naked gun 33 1/3: the final insult (1994))'
p82
sS'tt0107688'
p83
S'tt0108122(short cuts (1993))::tt0114852(village of the damned (1995))::tt0110657(next karate kid, the (1994))::tt0230877(three musketeers, the (1993))::tt0114168(powder (1995))'
p84
sS'tt0110516'
p85
S"tt0109642(dolores claiborne (1995))::tt0110622(naked gun 33 1/3: the final insult (1994))::tt3446062(babysitter, the (1995))::tt0107206(in the line of fire (1993))::62(mr. holland's opus (1995))"
p86
sS'tt0110638'
p87
S'tt0114496(something to talk about (1995))::tt0107478(made in america (1993))::tt0230877(three musketeers, the (1993))::tt1595032(underneath (1995))::tt4103972(remains of the day, the (1993))'
p88
sS'tt0109771'
p89
S'tt4103972(remains of the day, the (1993))::tt0360307(richie rich (1994))::tt0050022(gumby: the movie (1995))::tt0109579(death and the maiden (1994))::tt2167202(getaway, the (1994))'
p90
sS'tt2734804'
p91
S'tt0096895(batman (1989))::tt0115645(before and after (1996))::tt0107507(manhattan murder mystery (1993))::tt0114496(something to talk about (1995))::tt0230877(three musketeers, the (1993))'
p92
sS'tt0110632'
p93
S'tt0230877(three musketeers, the (1993))::tt0115645(before and after (1996))::tt3446062(babysitter, the (1995))::tt0109579(death and the maiden (1994))::tt0113749(mallrats (1995))'
p94
sS'tt0106489'
p95
S'tt0113691(losing isaiah (1995))::tt0360307(richie rich (1994))::tt4103972(remains of the day, the (1993))::tt0113089(fluke (1995))::tt0113987(nixon (1995))'
p96
sS'tt0110737'
p97
S'tt1595032(underneath (1995))::tt0111256(speechless (1994))::tt0109198(bad girls (1994))::tt0111127(serial mom (1994))::tt0114496(something to talk about (1995))'
p98
sS'tt0117110'
p99
S'tt0360307(richie rich (1994))::tt0114496(something to talk about (1995))::tt1595032(underneath (1995))::tt0050022(gumby: the movie (1995))::tt0230877(three musketeers, the (1993))'
p100
sS'tt1391741'
p101
S'tt0109198(bad girls (1994))::tt0113089(fluke (1995))::tt0109891(getting even with dad (1994))::tt0059448(mirage (1995))::tt0058450(umbrellas of cherbourg, the (parapluies de cherbourg, les) (1964))'
p102
sS'tt0107290'
p103
S'tt0115759(broken arrow (1996))::tt0111742(wolf (1994))::tt0109198(bad girls (1994))::tt3446062(babysitter, the (1995))::tt1595032(underneath (1995))'
p104
sS'tt2665218'
p105
S'tt0230877(three musketeers, the (1993))::tt4103972(remains of the day, the (1993))::tt3446062(babysitter, the (1995))::tt0114496(something to talk about (1995))::tt0257315(my family (1995))'
p106
sS'tt0113347'
p107
S'tt0109891(getting even with dad (1994))::tt3446062(babysitter, the (1995))::tt0360307(richie rich (1994))::tt1595032(underneath (1995))::tt0230877(three musketeers, the (1993))'
p108
sS'tt0499556'
p109
S'tt0230877(three musketeers, the (1993))::tt0114496(something to talk about (1995))::tt3446062(babysitter, the (1995))::tt0360307(richie rich (1994))::tt0050022(gumby: the movie (1995))'
p110
sS'tt0099653'
p111
S'tt0115645(before and after (1996))::tt0112966(englishman who went up a hill but came down a mountain, the (1995))::tt0499556(war, the (1994))::tt4947656(simple twist of fate, a (1994))::tt0360307(richie rich (1994))'
p112
sS'tt0107426'
p113
S'tt0111256(speechless (1994))::tt0108174(so i married an axe murderer (1993))::tt3446062(babysitter, the (1995))::tt0114496(something to talk about (1995))::tt0779794(boys life (1995))'
p114
sS'tt0107057'
p115
S'tt0115645(before and after (1996))::tt1595032(underneath (1995))::tt0230877(three musketeers, the (1993))::tt0109198(bad girls (1994))::tt4103972(remains of the day, the (1993))'
p116
sS'102'
p117
S'tt0109579(death and the maiden (1994))::tt0117002(mary reilly (1996))::tt0114496(something to talk about (1995))::tt0779794(boys life (1995))::tt4103972(remains of the day, the (1993))'
p118
sS'tt0109484'
p119
S'tt3446062(babysitter, the (1995))::tt2167202(getaway, the (1994))::tt0360307(richie rich (1994))::tt0109579(death and the maiden (1994))::tt0111742(wolf (1994))'
p120
sS'tt0109480'
p121
S'tt0107478(made in america (1993))::tt0106292(another stakeout (1993))::tt0230877(three musketeers, the (1993))::tt0114496(something to talk about (1995))::tt0111400(terminal velocity (1994))'
p122
sS'tt1448755'
p123
S'tt0114496(something to talk about (1995))::tt0111301(street fighter (1994))::tt0113749(mallrats (1995))::tt0112818(dead man walking (1995))::tt1595032(underneath (1995))'
p124
sS'tt0109642'
p125
S'tt0114496(something to talk about (1995))::tt0779794(boys life (1995))::tt0107478(made in america (1993))::tt0230877(three musketeers, the (1993))::tt0111256(speechless (1994))'
p126
sS'tt0112966'
p127
S'tt1595032(underneath (1995))::tt3446062(babysitter, the (1995))::tt0230877(three musketeers, the (1993))::tt0114496(something to talk about (1995))::tt0360307(richie rich (1994))'
p128
sS'tt0114898'
p129
S'tt0111742(wolf (1994))::tt0114496(something to talk about (1995))::tt0779794(boys life (1995))::tt1595032(underneath (1995))::tt0109891(getting even with dad (1994))'
p130
sS'tt0110123'
p131
S'tt0111161(shawshank redemption, the (1994))::tt0360307(richie rich (1994))::tt0111256(speechless (1994))::tt0112715(congo (1995))::tt0111127(serial mom (1994))'
p132
sS'tt0105226'
p133
S"tt0111742(wolf (1994))::62(mr. holland's opus (1995))::tt3446062(babysitter, the (1995))::tt0360307(richie rich (1994))::tt0230877(three musketeers, the (1993))"
p134
sS'tt0109279'
p135
S'tt0107478(made in america (1993))::tt4103972(remains of the day, the (1993))::tt0109579(death and the maiden (1994))::tt0115639(beautiful girls (1996))::tt0059448(mirage (1995))'
p136
sS'tt0110647'
p137
S"tt2993648(what's love got to do with it? (1993))::tt0257315(my family (1995))::tt0110657(next karate kid, the (1994))::tt0108101(shadowlands (1993))::tt0112572(brady bunch movie, the (1995))"
p138
sS'tt3832914'
p139
S'tt0111742(wolf (1994))::tt0114496(something to talk about (1995))::tt0109198(bad girls (1994))::tt0112471(before sunrise (1995))::tt0107478(made in america (1993))'
p140
sS'tt0113161'
p141
S'tt0230877(three musketeers, the (1993))::tt0109891(getting even with dad (1994))::tt1595032(underneath (1995))::tt0779794(boys life (1995))::tt0109579(death and the maiden (1994))'
p142
sS'tt0113691'
p143
S'tt0779794(boys life (1995))::tt0360307(richie rich (1994))::tt0111127(serial mom (1994))::tt0230877(three musketeers, the (1993))::tt0050022(gumby: the movie (1995))'
p144
sS'tt0113690'
p145
S'tt0114496(something to talk about (1995))::tt0230877(three musketeers, the (1993))::tt3446062(babysitter, the (1995))::tt4103972(remains of the day, the (1993))::tt1595032(underneath (1995))'
p146
sS'tt0109093'
p147
S'tt3446062(babysitter, the (1995))::tt0360307(richie rich (1994))::tt0111256(speechless (1994))::tt0111127(serial mom (1994))::tt0230877(three musketeers, the (1993))'
p148
sS'tt0113041'
p149
S'tt3446062(babysitter, the (1995))::tt0112572(brady bunch movie, the (1995))::tt0114388(sense and sensibility (1995))::tt2167202(getaway, the (1994))::tt0111127(serial mom (1994))'
p150
sS'tt0113044'
p151
S'tt0779794(boys life (1995))::tt4103972(remains of the day, the (1993))::tt0114496(something to talk about (1995))::tt0230877(three musketeers, the (1993))::tt0107478(made in america (1993))'
p152
sS'tt0111579'
p153
S'tt0109891(getting even with dad (1994))::tt0111127(serial mom (1994))::tt0109198(bad girls (1994))::tt0113101(four rooms (1995))::tt0360307(richie rich (1994))'
p154
sS'tt0111488'
p155
S'tt0109891(getting even with dad (1994))::tt0779794(boys life (1995))::tt4103972(remains of the day, the (1993))::tt0114496(something to talk about (1995))::tt0230877(three musketeers, the (1993))'
p156
sS'tt0113198'
p157
S"62(mr. holland's opus (1995))::tt0109891(getting even with dad (1994))::tt1595032(underneath (1995))::tt3446062(babysitter, the (1995))::tt4103972(remains of the day, the (1993))"
p158
sS'tt0113199'
p159
S'tt0257315(my family (1995))::tt2167202(getaway, the (1994))::tt0230877(three musketeers, the (1993))::tt1595032(underneath (1995))::tt0112572(brady bunch movie, the (1995))'
p160
sS'tt0099785'
p161
S'tt0115645(before and after (1996))::tt3446062(babysitter, the (1995))::tt0111127(serial mom (1994))::tt0114496(something to talk about (1995))::tt0112572(brady bunch movie, the (1995))'
p162
sS'tt0111301'
p163
S'tt0050022(gumby: the movie (1995))::tt0230877(three musketeers, the (1993))::tt3446062(babysitter, the (1995))::tt0111742(wolf (1994))::tt4103972(remains of the day, the (1993))'
p164
sS'tt0111732'
p165
S'tt0109579(death and the maiden (1994))::tt4103972(remains of the day, the (1993))::tt0230877(three musketeers, the (1993))::tt1595032(underneath (1995))::tt3446062(babysitter, the (1995))'
p166
sS'tt0107096'
p167
S'tt0112819(dead presidents (1995))::tt0058450(umbrellas of cherbourg, the (parapluies de cherbourg, les) (1964))::tt0114496(something to talk about (1995))::tt4103972(remains of the day, the (1993))::tt0059448(mirage (1995))'
p168
sS'tt0111309'
p169
S"tt1595032(underneath (1995))::tt0779794(boys life (1995))::498 (mr. jones (1993))::62(mr. holland's opus (1995))::tt0109891(getting even with dad (1994))"
p170
sS'tt0814314'
p171
S'tt0111333(swan princess, the (1994))::tt0111256(speechless (1994))::tt0257315(my family (1995))::tt0117002(mary reilly (1996))::tt0111003(puppet masters, the (1994))'
p172
sS'tt0105032'
p173
S'tt4103972(remains of the day, the (1993))::tt0111256(speechless (1994))::tt3446062(babysitter, the (1995))::tt0230877(three musketeers, the (1993))::tt0111333(swan princess, the (1994))'
p174
sS'tt0109891'
p175
S'tt0779794(boys life (1995))::tt4103972(remains of the day, the (1993))::tt0360307(richie rich (1994))::tt0114496(something to talk about (1995))::tt1595032(underneath (1995))'
p176
sS'tt0112364'
p177
S'tt0108101(shadowlands (1993))::tt0109198(bad girls (1994))::tt0147800(hate (haine, la) (1995))::tt0111127(serial mom (1994))::tt0230877(three musketeers, the (1993))'
p178
sS'tt0112365'
p179
S'tt0109891(getting even with dad (1994))::tt0111756(wyatt earp (1994))::tt0113089(fluke (1995))::tt3446062(babysitter, the (1995))::tt0106220(addams family values (1993))'
p180
sS'tt0111495'
p181
S'tt0111495(three colors: blue (trois couleurs: bleu) (1993))::tt0111495(three colors: red (trois couleurs: rouge) (1994))::tt0114496(something to talk about (1995))::tt0111003(puppet masters, the (1994))::tt0230877(three musketeers, the (1993))'
p182
sS'tt0147800'
p183
S'tt0779794(boys life (1995))::tt0230877(three musketeers, the (1993))::tt0111127(serial mom (1994))::tt4103972(remains of the day, the (1993))::tt0114496(something to talk about (1995))'
p184
sS'tt0108550'
p185
S'tt0111256(speechless (1994))::tt0103639(aladdin (1992))::tt0114168(powder (1995))::tt0106220(addams family values (1993))::tt0111127(serial mom (1994))'
p186
sS'tt0280486'
p187
S'tt1595032(underneath (1995))::tt0230877(three musketeers, the (1993))::tt0114496(something to talk about (1995))::tt3446062(babysitter, the (1995))::tt4103972(remains of the day, the (1993))'
p188
sS'tt0114168'
p189
S'tt0230877(three musketeers, the (1993))::tt0113089(fluke (1995))::tt0106677(dazed and confused (1993))::tt0108122(short cuts (1993))::tt0109891(getting even with dad (1994))'
p190
sS'tt1656190'
p191
S'tt0113326(rumble in the bronx (hont faan kui) (1995))::tt0111400(terminal velocity (1994))::tt0251413(star wars: episode iv - a new hope (1977))::tt0106452(body snatchers (1993))::tt0112744(crossing guard, the (1995))'
p192
sS'tt0106834'
p193
S'tt0111400(terminal velocity (1994))::tt0280486(bad company (1995))::tt0115759(broken arrow (1996))::tt0109579(death and the maiden (1994))::tt1595032(underneath (1995))'
p194
sS'tt0230877'
p195
S'tt3446062(babysitter, the (1995))::tt0114496(something to talk about (1995))::tt1595032(underneath (1995))::tt0779794(boys life (1995))::tt0109891(getting even with dad (1994))'
p196
sS'tt0109303'
p197
S'tt4103972(remains of the day, the (1993))::tt0111742(wolf (1994))::tt0108122(short cuts (1993))::tt0110622(naked gun 33 1/3: the final insult (1994))::tt0115639(beautiful girls (1996))'
p198
sS'tt0112744'
p199
S'tt0360307(richie rich (1994))::tt0111127(serial mom (1994))::tt0230877(three musketeers, the (1993))::tt4103972(remains of the day, the (1993))::tt0114496(something to talk about (1995))'
p200
sS'tt0109306'
p201
S'tt4103972(remains of the day, the (1993))::tt3446062(babysitter, the (1995))::tt0360307(richie rich (1994))::tt0779794(boys life (1995))::tt0114496(something to talk about (1995))'
p202
sS'tt0112740'
p203
S'tt4103972(remains of the day, the (1993))::tt0230877(three musketeers, the (1993))::tt1595032(underneath (1995))::tt3446062(babysitter, the (1995))::tt2167202(getaway, the (1994))'
p204
sS'tt0109305'
p205
S'tt0111256(speechless (1994))::tt0110950(reality bites (1994))::tt0230877(three musketeers, the (1993))::tt0115639(beautiful girls (1996))::tt0779794(boys life (1995))'
p206
sS'tt0114345'
p207
S'tt0116367(from dusk till dawn (1996))::tt0114496(something to talk about (1995))::tt0113501(just cause (1995))::tt0108174(so i married an axe murderer (1993))::tt0099348(dances with wolves (1990))'
p208
sS'tt0114614'
p209
S'tt0360307(richie rich (1994))::tt0106452(body snatchers (1993))::tt0113442(it takes two (1995))::tt0112744(crossing guard, the (1995))::tt0111333(swan princess, the (1994))'
p210
sS'tt0110322'
p211
S'tt3446062(babysitter, the (1995))::tt0230877(three musketeers, the (1993))::tt0111161(shawshank redemption, the (1994))::tt0109891(getting even with dad (1994))::tt0114496(something to talk about (1995))'
p212
sS'tt0112646'
p213
S'tt0110907(ready to wear (pret-a-porter) (1994))::tt0114805(unzipped (1995))::tt0104029(cronos (1993))::tt0059448(mirage (1995))::tt0113101(four rooms (1995))'
p214
sS'tt0112643'
p215
S'tt0230877(three musketeers, the (1993))::tt2167202(getaway, the (1994))::tt1595032(underneath (1995))::tt3446062(babysitter, the (1995))::tt0114496(something to talk about (1995))'
p216
sS'tt0112642'
p217
S"tt0109439(city slickers ii: the legend of curly's gold (1994))::tt1595680(being human (1993))::tt3446062(babysitter, the (1995))::tt0117002(mary reilly (1996))::tt0109450(cobb (1994))"
p218
sS'tt0112641'
p219
S'tt0113749(mallrats (1995))::tt0360307(richie rich (1994))::tt0115645(before and after (1996))::tt0050022(gumby: the movie (1995))::tt0230877(three musketeers, the (1993))'
p220
sS'tt0110265'
p221
S'tt0108122(short cuts (1993))::tt0114852(village of the damned (1995))::tt4103972(remains of the day, the (1993))::tt0114496(something to talk about (1995))::tt0112579(bridges of madison county, the (1995))'
p222
sS'tt0114296'
p223
S'tt4103972(remains of the day, the (1993))::tt3446062(babysitter, the (1995))::tt0114496(something to talk about (1995))::tt0111127(serial mom (1994))::tt0109579(death and the maiden (1994))'
p224
sS'tt0110305'
p225
S'tt4103972(remains of the day, the (1993))::tt0360307(richie rich (1994))::tt0111127(serial mom (1994))::tt0113089(fluke (1995))::tt0110657(next karate kid, the (1994))'
p226
sS'tt0110064'
p227
S'tt0113497(jumanji (1995))::tt0111256(speechless (1994))::tt1595680(being human (1993))::tt0109504(crooklyn (1994))::tt0107507(manhattan murder mystery (1993))'
p228
sS'tt0110066'
p229
S'tt0109891(getting even with dad (1994))::tt0111488(trial by jury (1994))::tt0114131(pie in the sky (1996))::tt0779794(boys life (1995))::tt4103972(remains of the day, the (1993))'
p230
sS'tt0106941'
p231
S'tt0114496(something to talk about (1995))::tt2167202(getaway, the (1994))::tt4103972(remains of the day, the (1993))::tt0111256(speechless (1994))::tt0107478(made in america (1993))'
p232
sS'tt0111161'
p233
S'tt0230877(three musketeers, the (1993))::tt0111256(speechless (1994))::tt0114496(something to talk about (1995))::tt1595032(underneath (1995))::tt0380167(addiction, the (1995))'
p234
sS'tt0118158'
p235
S'tt0360307(richie rich (1994))::tt0779794(boys life (1995))::tt0050022(gumby: the movie (1995))::tt0115645(before and after (1996))::tt0109198(bad girls (1994))'
p236
sS'tt0114536'
p237
S'tt0779794(boys life (1995))::tt0360307(richie rich (1994))::tt0111742(wolf (1994))::tt0109579(death and the maiden (1994))::tt0230877(three musketeers, the (1993))'
p238
sS'tt0115734'
p239
S'tt0109198(bad girls (1994))::tt1391741(walking dead, the (1995))::tt0113987(nixon (1995))::tt0360307(richie rich (1994))::tt0107507(manhattan murder mystery (1993))'
p240
sS'tt0114906'
p241
S'tt4103972(remains of the day, the (1993))::tt0147800(hate (haine, la) (1995))::tt0113158(georgia (1995))::tt0110305(lassie (1994))::tt0058450(umbrellas of cherbourg, the (parapluies de cherbourg, les) (1964))'
p242
sS'tt0059170'
p243
S'tt1391741(walking dead, the (1995))::tt0113089(fluke (1995))::tt0779794(boys life (1995))::tt0115645(before and after (1996))::tt0113044(feast of july (1995))'
p244
sS'tt0108255'
p245
S'tt0109198(bad girls (1994))::tt0360307(richie rich (1994))::tt0230877(three musketeers, the (1993))::tt1595032(underneath (1995))::tt0111256(speechless (1994))'
p246
sS'tt0116839'
p247
S'tt0114857(virtuosity (1995))::tt0114496(something to talk about (1995))::tt0111400(terminal velocity (1994))::tt0079758(prophecy, the (1995))::tt0230877(three musketeers, the (1993))'
p248
sS'tt0110167'
p249
S'tt0113749(mallrats (1995))::tt0230877(three musketeers, the (1993))::tt0115639(beautiful girls (1996))::tt4103972(remains of the day, the (1993))::tt2167202(getaway, the (1994))'
p250
sS'tt0107497'
p251
S'tt4103972(remains of the day, the (1993))::tt0038650(wonderful, horrible life of leni riefenstahl, the (macht der bilder: leni riefenstahl, die) (1993))::tt1595032(underneath (1995))::tt0360307(richie rich (1994))::tt0109891(getting even with dad (1994))'
p252
sS'tt0110604'
p253
S'tt2167202(getaway, the (1994))::tt0115645(before and after (1996))::tt0109579(death and the maiden (1994))::tt0111256(speechless (1994))::tt0114496(something to talk about (1995))'
p254
sS'tt0110769'
p255
S'tt0111256(speechless (1994))::tt0109891(getting even with dad (1994))::tt0107478(made in america (1993))::tt4103972(remains of the day, the (1993))::tt0103639(aladdin (1992))'
p256
sS'tt0110763'
p257
S'tt0113987(nixon (1995))::tt1595032(underneath (1995))::tt0111742(wolf (1994))::tt0074102(in the realm of the senses (ai no corrida) (1976))::tt0113691(losing isaiah (1995))'
p258
sS'tt0108328'
p259
S'tt0114496(something to talk about (1995))::tt0109891(getting even with dad (1994))::tt0230877(three musketeers, the (1993))::tt4103972(remains of the day, the (1993))::tt3446062(babysitter, the (1995))'
p260
sS'tt0109198'
p261
S"tt0230877(three musketeers, the (1993))::tt0360307(richie rich (1994))::tt0109891(getting even with dad (1994))::tt0111127(serial mom (1994))::62(mr. holland's opus (1995))"
p262
sS'tt0113419'
p263
S'tt0360307(richie rich (1994))::tt0113749(mallrats (1995))::tt0111127(serial mom (1994))::tt0112641(casino (1995))::tt0112883(don juan demarco (1995))'
p264
sS'tt1842530'
p265
S'tt0111400(terminal velocity (1994))::tt1595032(underneath (1995))::tt0257315(my family (1995))::tt0113277(heat (1995))::tt3446062(babysitter, the (1995))'
p266
sS'tt0116130'
p267
S'tt0108122(short cuts (1993))::tt0111333(swan princess, the (1994))::tt4103972(remains of the day, the (1993))::tt0230877(three musketeers, the (1993))::tt0114496(something to talk about (1995))'
p268
sS'tt0107302'
p269
S'tt0110632(natural born killers (1994))::tt0112818(dead man walking (1995))::tt0230877(three musketeers, the (1993))::tt0115645(before and after (1996))::tt0110997(river wild, the (1994))'
p270
sS'tt0106880'
p271
S'tt0114496(something to talk about (1995))::tt0230877(three musketeers, the (1993))::tt0109891(getting even with dad (1994))::tt4103972(remains of the day, the (1993))::tt0050022(gumby: the movie (1995))'
p272
sS'499'
p273
S"tt0109198(bad girls (1994))::62(mr. holland's opus (1995))::tt0360307(richie rich (1994))::tt0230877(three musketeers, the (1993))::tt4103972(remains of the day, the (1993))"
p274
sS'tt0096895'
p275
S'tt3446062(babysitter, the (1995))::tt0230877(three musketeers, the (1993))::tt0050022(gumby: the movie (1995))::tt1595032(underneath (1995))::tt0058450(umbrellas of cherbourg, the (parapluies de cherbourg, les) (1964))'
p276
sS'tt0115033'
p277
S'tt0106220(addams family values (1993))::tt1781922(no escape (1994))::tt3446062(babysitter, the (1995))::tt4947656(simple twist of fate, a (1994))::tt0050022(gumby: the movie (1995))'
p278
sS'498 '
p279
S'tt0114496(something to talk about (1995))::tt0109579(death and the maiden (1994))::tt1595032(underneath (1995))::tt0230877(three musketeers, the (1993))::tt0107478(made in america (1993))'
p280
sS'tt0109045'
p281
S'tt0114496(something to talk about (1995))::tt0360307(richie rich (1994))::tt0109198(bad girls (1994))::tt0230877(three musketeers, the (1993))::tt0115645(before and after (1996))'
p282
sS'tt0113097'
p283
S'tt0111256(speechless (1994))::tt3446062(babysitter, the (1995))::tt4103972(remains of the day, the (1993))::tt0230877(three musketeers, the (1993))::tt0109891(getting even with dad (1994))'
p284
sS'tt0109120'
p285
S'tt0113089(fluke (1995))::tt0257315(my family (1995))::tt0109891(getting even with dad (1994))::tt0110729(once were warriors (1994))::tt4103972(remains of the day, the (1993))'
p286
sS'tt0113463'
p287
S'tt0230877(three musketeers, the (1993))::tt0109198(bad girls (1994))::tt0114885(waiting to exhale (1995))::tt0113101(four rooms (1995))::83(once upon a time... when we were colored (1995))'
p288
sS'tt0113305'
p289
S'tt0115639(beautiful girls (1996))::tt0360307(richie rich (1994))::tt0050022(gumby: the movie (1995))::tt0230877(three musketeers, the (1993))::tt4103972(remains of the day, the (1993))'
p290
sS'tt0421417'
p291
S'tt0111742(wolf (1994))::tt0499556(war, the (1994))::tt0109198(bad girls (1994))::tt0111127(serial mom (1994))::tt3446062(babysitter, the (1995))'
p292
sS'tt2747352'
p293
S'tt0111400(terminal velocity (1994))::tt0111742(wolf (1994))::tt0108174(so i married an axe murderer (1993))::tt0109891(getting even with dad (1994))::tt1842530(unforgettable (1996))'
p294
sS'tt0113303'
p295
S'tt0111003(puppet masters, the (1994))::tt0114496(something to talk about (1995))::tt0109891(getting even with dad (1994))::tt0110657(next karate kid, the (1994))::tt4103972(remains of the day, the (1993))'
p296
sS'tt0110116'
p297
S"tt4103972(remains of the day, the (1993))::tt0110950(reality bites (1994))::tt1595032(underneath (1995))::tt0115639(beautiful girls (1996))::62(mr. holland's opus (1995))"
p298
sS'tt0108101'
p299
S'tt0230877(three musketeers, the (1993))::tt0114496(something to talk about (1995))::tt4103972(remains of the day, the (1993))::tt0109198(bad girls (1994))::tt3446062(babysitter, the (1995))'
p300
sS'tt0113481'
p301
S'tt0112883(don juan demarco (1995))::tt0114496(something to talk about (1995))::tt0109370(canadian bacon (1995))::tt0050022(gumby: the movie (1995))::tt0779794(boys life (1995))'
p302
sS'tt0118375'
p303
S'tt0779794(boys life (1995))::tt0109891(getting even with dad (1994))::tt0115645(before and after (1996))::tt0111742(wolf (1994))::tt0111127(serial mom (1994))'
p304
sS'tt0114129'
p305
S'tt0114496(something to talk about (1995))::tt0109198(bad girls (1994))::tt0110657(next karate kid, the (1994))::tt0230877(three musketeers, the (1993))::tt0112579(bridges of madison county, the (1995))'
p306
sS'tt0360480'
p307
S'tt0112471(before sunrise (1995))::tt1425253(shadow, the (1994))::tt0113089(fluke (1995))::tt0109198(bad girls (1994))::tt0107497(malice (1993))'
p308
sS'tt0111742'
p309
S'tt3446062(babysitter, the (1995))::tt0109891(getting even with dad (1994))::tt0114496(something to talk about (1995))::tt0050022(gumby: the movie (1995))::tt0111127(serial mom (1994))'
p310
sS'tt0109348'
p311
S'tt0107096(heaven & earth (1993))::tt1425253(shadow, the (1994))::tt0112883(don juan demarco (1995))::tt4947656(simple twist of fate, a (1994))::tt2167202(getaway, the (1994))'
p312
sS'tt0114496'
p313
S'tt0107478(made in america (1993))::tt0230877(three musketeers, the (1993))::tt1595032(underneath (1995))::tt0109891(getting even with dad (1994))::tt4103972(remains of the day, the (1993))'
p314
sS'tt2069449'
p315
S'tt0115639(beautiful girls (1996))::tt0112572(brady bunch movie, the (1995))::tt0109891(getting even with dad (1994))::tt0109450(cobb (1994))::tt0114496(something to talk about (1995))'
p316
sS'tt0109906'
p317
S"tt0106292(another stakeout (1993))::62(mr. holland's opus (1995))::tt0230877(three musketeers, the (1993))::tt0114496(something to talk about (1995))::tt0050022(gumby: the movie (1995))"
p318
sS'tt0112302'
p319
S'tt0360307(richie rich (1994))::tt0115645(before and after (1996))::tt0113691(losing isaiah (1995))::tt0106965(free willy (1993))::tt0113347(how to make an american quilt (1995))'
p320
sS'tt0106598'
p321
S'tt0111003(puppet masters, the (1994))::tt0083658(blade runner (1982))::tt0114496(something to talk about (1995))::tt0114852(village of the damned (1995))::tt0106452(body snatchers (1993))'
p322
sS'tt0110057'
p323
S"tt0106677(dazed and confused (1993))::62(mr. holland's opus (1995))::tt0109035(above the rim (1994))::tt0110950(reality bites (1994))::tt0114885(waiting to exhale (1995))"
p324
sS'tt0114011'
p325
S'tt3446062(babysitter, the (1995))::tt0114496(something to talk about (1995))::tt0111127(serial mom (1994))::tt0109198(bad girls (1994))::tt0109891(getting even with dad (1994))'
p326
sS'tt0111689'
p327
S"tt0230877(three musketeers, the (1993))::tt3446062(babysitter, the (1995))::62(mr. holland's opus (1995))::tt4103972(remains of the day, the (1993))::tt0779794(boys life (1995))"
p328
sS'tt0111127'
p329
S'tt0779794(boys life (1995))::tt0360307(richie rich (1994))::tt3446062(babysitter, the (1995))::tt0109891(getting even with dad (1994))::tt0109198(bad girls (1994))'
p330
sS'tt0114151'
p331
S"tt0106677(dazed and confused (1993))::62(mr. holland's opus (1995))::tt0108122(short cuts (1993))::tt4103972(remains of the day, the (1993))::tt1595032(underneath (1995))"
p332
sS'tt0112286'
p333
S'tt0257315(my family (1995))::tt0109198(bad girls (1994))::tt0113243(hackers (1995))::tt0059448(mirage (1995))::tt0111400(terminal velocity (1994))'
p334
sS'tt0107840'
p335
S'tt0114496(something to talk about (1995))::tt0108122(short cuts (1993))::tt0107057(guilty as sin (1993))::tt0111003(puppet masters, the (1994))::tt0230877(three musketeers, the (1993))'
p336
sS'tt0112851'
p337
S'tt0110950(reality bites (1994))::tt0109443(clean slate (1994))::tt1391741(walking dead, the (1995))::tt0109450(cobb (1994))::tt0058450(umbrellas of cherbourg, the (parapluies de cherbourg, les) (1964))'
p338
sS'tt0112857'
p339
S"tt0107478(made in america (1993))::tt0114496(something to talk about (1995))::tt0114928(white man's burden (1995))::tt1595032(underneath (1995))::tt0380167(addiction, the (1995))"
p340
sS'tt0112854'
p341
S'tt0111742(wolf (1994))::tt1595680(being human (1993))::tt0111127(serial mom (1994))::tt1391741(walking dead, the (1995))::tt0109198(bad girls (1994))'
p342
sS'tt0107507'
p343
S'tt4103972(remains of the day, the (1993))::tt1595032(underneath (1995))::tt0230877(three musketeers, the (1993))::tt0109198(bad girls (1994))::tt0109891(getting even with dad (1994))'
p344
sS'tt0114272'
p345
S'tt0111256(speechless (1994))::tt0103639(aladdin (1992))::tt0109831(four weddings and a funeral (1994))::tt0109198(bad girls (1994))::tt2167202(getaway, the (1994))'
p346
sS'tt0106582'
p347
S'tt0111003(puppet masters, the (1994))::tt0230877(three musketeers, the (1993))::tt0111256(speechless (1994))::tt0360307(richie rich (1994))::tt0109198(bad girls (1994))'
p348
sS'tt0110932'
p349
S'tt0038650(wonderful, horrible life of leni riefenstahl, the (macht der bilder: leni riefenstahl, die) (1993))::tt0111256(speechless (1994))::tt0107478(made in america (1993))::tt0114496(something to talk about (1995))::tt0230877(three musketeers, the (1993))'
p350
sS'tt0107501'
p351
S"62(mr. holland's opus (1995))::tt0108174(so i married an axe murderer (1993))::tt0074102(in the realm of the senses (ai no corrida) (1976))::tt0779794(boys life (1995))::tt0230877(three musketeers, the (1993))"
p352
sS'tt0114279'
p353
S"tt0116483(happy gilmore (1996))::tt1595032(underneath (1995))::tt0109579(death and the maiden (1994))::62(mr. holland's opus (1995))::tt0230877(three musketeers, the (1993))"
p354
sS'tt0110939'
p355
S'tt0114496(something to talk about (1995))::tt3446062(babysitter, the (1995))::tt0110657(next karate kid, the (1994))::tt1595032(underneath (1995))::tt2167202(getaway, the (1994))'
p356
sS'tt0114781'
p357
S'tt0280486(bad company (1995))::tt0116253(executive decision (1996))::tt0111438(timecop (1994))::tt0109729(endless summer 2, the (1994))::tt4947656(simple twist of fate, a (1994))'
p358
sS'tt0112453'
p359
S'tt4103972(remains of the day, the (1993))::tt0113089(fluke (1995))::tt0257315(my family (1995))::tt0111742(wolf (1994))::tt0050022(gumby: the movie (1995))'
p360
sS'tt0107983'
p361
S'tt0107507(manhattan murder mystery (1993))::tt0107554(menace ii society (1993))::tt4103972(remains of the day, the (1993))::tt0115645(before and after (1996))::tt0111127(serial mom (1994))'
p362
sS'tt0113855'
p363
S'tt0114478(smoke (1995))::tt0147800(hate (haine, la) (1995))::tt0074102(in the realm of the senses (ai no corrida) (1976))::tt0251413(star wars: episode iv - a new hope (1977))::tt1595032(underneath (1995))'
p364
sS'tt4947656'
p365
S'tt0360307(richie rich (1994))::tt0110657(next karate kid, the (1994))::tt0109198(bad girls (1994))::tt0230877(three musketeers, the (1993))::tt1595032(underneath (1995))'
p366
sS'tt0870089'
p367
S'tt0230877(three musketeers, the (1993))::tt0109198(bad girls (1994))::tt0114496(something to talk about (1995))::tt4103972(remains of the day, the (1993))::tt0111127(serial mom (1994))'
p368
sS'tt0108160'
p369
S'tt0109891(getting even with dad (1994))::tt0074102(in the realm of the senses (ai no corrida) (1976))::tt0111127(serial mom (1994))::tt0113107(frankie starlight (1995))::tt0110950(reality bites (1994))'
p370
sS'tt0108162'
p371
S'tt0059448(mirage (1995))::tt0230877(three musketeers, the (1993))::tt4103972(remains of the day, the (1993))::tt3446062(babysitter, the (1995))::tt0114296(roommates (1995))'
p372
sS'tt0110729'
p373
S'tt0109891(getting even with dad (1994))::tt3446062(babysitter, the (1995))::tt0779794(boys life (1995))::tt0050022(gumby: the movie (1995))::tt1595032(underneath (1995))'
p374
sS'tt0047437'
p375
S'tt0111256(speechless (1994))::tt0109891(getting even with dad (1994))::tt0111756(wyatt earp (1994))::tt0111161(shawshank redemption, the (1994))::tt0107507(manhattan murder mystery (1993))'
p376
sS'tt0106519'
p377
S'tt3507484(flesh and bone (1993))::tt0109198(bad girls (1994))::tt0113749(mallrats (1995))::tt0110657(next karate kid, the (1994))::tt0107057(guilty as sin (1993))'
p378
sS'tt0113321'
p379
S'tt0109891(getting even with dad (1994))::tt3446062(babysitter, the (1995))::tt0111742(wolf (1994))::tt4103972(remains of the day, the (1993))::tt0059448(mirage (1995))'
p380
sS'tt0107822'
p381
S'tt0059448(mirage (1995))::tt0114496(something to talk about (1995))::tt0109891(getting even with dad (1994))::tt4103972(remains of the day, the (1993))::tt0107478(made in america (1993))'
p382
sS'tt0109493'
p383
S'tt0109198(bad girls (1994))::tt0360307(richie rich (1994))::tt1595032(underneath (1995))::tt0059448(mirage (1995))::tt0050022(gumby: the movie (1995))'
p384
sS'tt0779982'
p385
S'tt0114214(quick and the dead, the (1995))::tt0115683(bio-dome (1996))::tt0111400(terminal velocity (1994))::tt0110729(once were warriors (1994))::tt0112715(congo (1995))'
p386
sS'tt3507484'
p387
S'tt0114496(something to talk about (1995))::tt1595032(underneath (1995))::tt0109891(getting even with dad (1994))::tt0230877(three musketeers, the (1993))::tt0110657(next karate kid, the (1994))'
p388
sS'tt0108069'
p389
S'tt0360307(richie rich (1994))::tt0109891(getting even with dad (1994))::tt0050022(gumby: the movie (1995))::tt1595032(underneath (1995))::tt0106452(body snatchers (1993))'
p390
sS'tt0108065'
p391
S'tt0109450(cobb (1994))::tt0360307(richie rich (1994))::tt0111742(wolf (1994))::tt0112579(bridges of madison county, the (1995))::tt3446062(babysitter, the (1995))'
p392
sS'tt1595032'
p393
S"tt0230877(three musketeers, the (1993))::tt0114496(something to talk about (1995))::tt0109891(getting even with dad (1994))::62(mr. holland's opus (1995))::tt4103972(remains of the day, the (1993))"
p394
sS'tt0114571'
p395
S'tt0111693(when a man loves a woman (1994))::tt0109891(getting even with dad (1994))::tt0111488(trial by jury (1994))::tt0112495(beyond rangoon (1995))::tt0111054(safe passage (1994))'
p396
sS'tt0114576'
p397
S'tt0230877(three musketeers, the (1993))::tt0109579(death and the maiden (1994))::tt1595032(underneath (1995))::tt0109198(bad girls (1994))::tt0107057(guilty as sin (1993))'
p398
sS'tt3622592'
p399
S'tt0360307(richie rich (1994))::tt0050022(gumby: the movie (1995))::tt0109198(bad girls (1994))::tt0109891(getting even with dad (1994))::tt0779794(boys life (1995))'
p400
sS'tt0113228'
p401
S'tt1595032(underneath (1995))::tt4103972(remains of the day, the (1993))::tt0114478(smoke (1995))::tt3446062(babysitter, the (1995))::tt0109198(bad girls (1994))'
p402
sS'tt0117002'
p403
S'tt3446062(babysitter, the (1995))::tt0111256(speechless (1994))::tt0230877(three musketeers, the (1993))::tt0779794(boys life (1995))::tt4103972(remains of the day, the (1993))'
p404
sS'tt0113071'
p405
S'tt0147800(hate (haine, la) (1995))::tt0111742(wolf (1994))::tt0108255(super mario bros. (1993))::tt0230877(three musketeers, the (1993))::tt3446062(babysitter, the (1995))'
p406
sS'tt0112887'
p407
S'tt0109198(bad girls (1994))::tt0115645(before and after (1996))::tt0230877(three musketeers, the (1993))::tt0110657(next karate kid, the (1994))::tt0111256(speechless (1994))'
p408
sS'tt0112883'
p409
S'tt0114496(something to talk about (1995))::tt0058450(umbrellas of cherbourg, the (parapluies de cherbourg, les) (1964))::tt0230877(three musketeers, the (1993))::tt1595032(underneath (1995))::tt3446062(babysitter, the (1995))'
p410
sS'tt0111252'
p411
S"tt0779794(boys life (1995))::tt0111127(serial mom (1994))::62(mr. holland's opus (1995))::tt1781922(no escape (1994))::tt0109642(dolores claiborne (1995))"
p412
sS'tt0111257'
p413
S'tt0110622(naked gun 33 1/3: the final insult (1994))::tt0106292(another stakeout (1993))::tt0111742(wolf (1994))::tt0050022(gumby: the movie (1995))::tt0779794(boys life (1995))'
p414
sS'tt0111256'
p415
S'tt4103972(remains of the day, the (1993))::tt0230877(three musketeers, the (1993))::tt1595032(underneath (1995))::tt0109579(death and the maiden (1994))::tt0779794(boys life (1995))'
p416
sS'tt0109424'
p417
S'tt0111256(speechless (1994))::tt0117002(mary reilly (1996))::tt3446062(babysitter, the (1995))::tt4103972(remains of the day, the (1993))::tt2167202(getaway, the (1994))'
p418
sS'tt0116151'
p419
S'tt0109891(getting even with dad (1994))::tt0360307(richie rich (1994))::tt0112744(crossing guard, the (1995))::tt0257315(my family (1995))::tt0110950(reality bites (1994))'
p420
sS'tt1595680'
p421
S'tt0111742(wolf (1994))::tt0114496(something to talk about (1995))::tt3446062(babysitter, the (1995))::tt0779794(boys life (1995))::tt4103972(remains of the day, the (1993))'
p422
sS'tt0116253'
p423
S'tt0230877(three musketeers, the (1993))::tt0050022(gumby: the movie (1995))::tt3446062(babysitter, the (1995))::tt0114496(something to talk about (1995))::tt0111003(puppet masters, the (1994))'
p424
sS'tt0113451'
p425
S'tt0108174(so i married an axe murderer (1993))::tt0109198(bad girls (1994))::tt0115645(before and after (1996))::tt0257315(my family (1995))::tt0230877(three musketeers, the (1993))'
p426
sS'tt1841321'
p427
S'tt0115639(beautiful girls (1996))::tt0106941(for love or money (1993))::tt0109642(dolores claiborne (1995))::tt0110950(reality bites (1994))::tt0113089(fluke (1995))'
p428
sS'tt0116324'
p429
S"tt0106677(dazed and confused (1993))::62(mr. holland's opus (1995))::tt0360307(richie rich (1994))::tt1595032(underneath (1995))::tt0113691(losing isaiah (1995))"
p430
sS'tt0113774'
p431
S'tt0230877(three musketeers, the (1993))::tt0113089(fluke (1995))::tt0114852(village of the damned (1995))::tt0257315(my family (1995))::tt0360307(richie rich (1994))'
p432
sS'tt0114798'
p433
S'tt3446062(babysitter, the (1995))::tt0115639(beautiful girls (1996))::tt0111127(serial mom (1994))::tt0109813(flintstones, the (1994))::tt0257315(my family (1995))'
p434
sS'tt0113674'
p435
S'tt0113749(mallrats (1995))::tt1595032(underneath (1995))::tt0360307(richie rich (1994))::tt0110632(natural born killers (1994))::tt0109579(death and the maiden (1994))'
p436
sS'tt0113677'
p437
S'tt0112572(brady bunch movie, the (1995))::tt0108122(short cuts (1993))::tt4103972(remains of the day, the (1993))::tt0113101(four rooms (1995))::tt0230877(three musketeers, the (1993))'
p438
sS'tt0110478'
p439
S'tt0109891(getting even with dad (1994))::tt0360307(richie rich (1994))::tt0111127(serial mom (1994))::tt0111742(wolf (1994))::tt0779794(boys life (1995))'
p440
sS'tt0114057'
p441
S'tt0779794(boys life (1995))::tt0109891(getting even with dad (1994))::tt1595032(underneath (1995))::tt0109198(bad girls (1994))::tt0360307(richie rich (1994))'
p442
sS'tt0111001'
p443
S'tt1595032(underneath (1995))::tt0230877(three musketeers, the (1993))::tt3446062(babysitter, the (1995))::tt0112966(englishman who went up a hill but came down a mountain, the (1995))::tt0117002(mary reilly (1996))'
p444
sS'tt0111003'
p445
S'tt0114496(something to talk about (1995))::tt0230877(three musketeers, the (1993))::tt0110657(next karate kid, the (1994))::tt1595032(underneath (1995))::tt0109198(bad girls (1994))'
p446
sS'tt0106332'
p447
S'tt0230877(three musketeers, the (1993))::tt0109579(death and the maiden (1994))::tt0109891(getting even with dad (1994))::tt0111756(wyatt earp (1994))::tt0113089(fluke (1995))'
p448
sS'tt0107207'
p449
S'tt0109891(getting even with dad (1994))::tt0112579(bridges of madison county, the (1995))::tt0110622(naked gun 33 1/3: the final insult (1994))::tt0360307(richie rich (1994))::tt0111742(wolf (1994))'
p450
sS'tt0215465'
p451
S'tt0215465(ace ventura: when nature calls (1995))::tt0360307(richie rich (1994))::tt0050022(gumby: the movie (1995))::tt3446062(babysitter, the (1995))::tt4103972(remains of the day, the (1993))'
p452
sS'tt0111797'
p453
S"tt1595680(being human (1993))::tt3446062(babysitter, the (1995))::tt0111256(speechless (1994))::62(mr. holland's opus (1995))::tt0116253(executive decision (1996))"
p454
sS'tt0112818'
p455
S'tt0230877(three musketeers, the (1993))::tt0109891(getting even with dad (1994))::tt3446062(babysitter, the (1995))::tt1595032(underneath (1995))::tt0110997(river wild, the (1994))'
p456
sS'tt0112819'
p457
S'tt4103972(remains of the day, the (1993))::tt0779794(boys life (1995))::tt0058450(umbrellas of cherbourg, the (parapluies de cherbourg, les) (1964))::tt0115639(beautiful girls (1996))::tt0107554(menace ii society (1993))'
p458
sS'tt0107653'
p459
S'tt0109891(getting even with dad (1994))::tt0113986(nine months (1995))::tt0111127(serial mom (1994))::tt0109198(bad girls (1994))::tt0360307(richie rich (1994))'
p460
sS'tt0822847'
p461
S"tt0114928(white man's burden (1995))::tt0230877(three musketeers, the (1993))::tt0113326(rumble in the bronx (hont faan kui) (1995))::tt0114296(roommates (1995))::tt0112427(awfully big adventure, an (1995))"
p462
sS'tt0112495'
p463
S'tt0779794(boys life (1995))::tt0109891(getting even with dad (1994))::tt0114496(something to talk about (1995))::tt1595032(underneath (1995))::tt4103972(remains of the day, the (1993))'
p464
sS'tt0112499'
p465
S'tt0111127(serial mom (1994))::tt0113749(mallrats (1995))::tt0360307(richie rich (1994))::tt0050022(gumby: the movie (1995))::tt0111742(wolf (1994))'
p466
sS'tt0796366'
p467
S'tt0109198(bad girls (1994))::tt0109891(getting even with dad (1994))::tt0114852(village of the damned (1995))::tt0107756(orlando (1992))::tt0107507(manhattan murder mystery (1993))'
p468
sS'tt0109830'
p469
S'tt0115639(beautiful girls (1996))::tt0360307(richie rich (1994))::499(mr. wonderful (1993))::tt0113749(mallrats (1995))::tt4103972(remains of the day, the (1993))'
p470
sS'tt0109831'
p471
S"tt0109198(bad girls (1994))::tt0115639(beautiful girls (1996))::tt0360307(richie rich (1994))::62(mr. holland's opus (1995))::tt0114478(smoke (1995))"
p472
sS'tt0113957'
p473
S'tt0111127(serial mom (1994))::tt3446062(babysitter, the (1995))::tt0360307(richie rich (1994))::tt0111742(wolf (1994))::tt0114496(something to talk about (1995))'
p474
sS'tt0113819'
p475
S"tt0113228(grumpier old men (1995))::tt0109913(go fish (1994))::tt2993648(what's love got to do with it? (1993))::tt1595032(underneath (1995))::tt0779794(boys life (1995))"
p476
sS'tt0109836'
p477
S'tt4103972(remains of the day, the (1993))::tt0109579(death and the maiden (1994))::tt0109891(getting even with dad (1994))::tt0114496(something to talk about (1995))::tt0230877(three musketeers, the (1993))'
p478
sS'tt0110684'
p479
S'tt0779794(boys life (1995))::tt0111054(safe passage (1994))::tt0109891(getting even with dad (1994))::tt0110657(next karate kid, the (1994))::tt0111127(serial mom (1994))'
p480
sS'tt0112792'
p481
S"tt0106677(dazed and confused (1993))::62(mr. holland's opus (1995))::tt0360307(richie rich (1994))::tt0109504(crooklyn (1994))::tt0779794(boys life (1995))"
p482
sS'tt0109729'
p483
S'tt0230877(three musketeers, the (1993))::tt0114496(something to talk about (1995))::tt0050022(gumby: the movie (1995))::tt4103972(remains of the day, the (1993))::tt0109198(bad girls (1994))'
p484
sS'tt0108358'
p485
S'tt0360307(richie rich (1994))::tt0108101(shadowlands (1993))::tt0115639(beautiful girls (1996))::tt0109198(bad girls (1994))::499(mr. wonderful (1993))'
p486
sS'tt0955308'
p487
S'tt0111127(serial mom (1994))::tt0230877(three musketeers, the (1993))::tt0109579(death and the maiden (1994))::tt0114852(village of the damned (1995))::tt0114214(quick and the dead, the (1995))'
p488
sS'tt0115683'
p489
S'tt0360307(richie rich (1994))::tt0257315(my family (1995))::tt0113749(mallrats (1995))::tt0230877(three musketeers, the (1993))::tt0109891(getting even with dad (1994))'
p490
sS'tt0108122'
p491
S'tt4103972(remains of the day, the (1993))::tt0230877(three musketeers, the (1993))::tt0114496(something to talk about (1995))::tt0109891(getting even with dad (1994))::tt3446062(babysitter, the (1995))'
p492
sS'tt0111173'
p493
S'tt0113089(fluke (1995))::tt0114478(smoke (1995))::tt0111742(wolf (1994))::tt0109891(getting even with dad (1994))::tt0115639(beautiful girls (1996))'
p494
sS'tt0110074'
p495
S'tt0107969(rising sun (1993))::tt0117002(mary reilly (1996))::tt0079758(prophecy, the (1995))::tt0109891(getting even with dad (1994))::tt0111256(speechless (1994))'
p496
sS'tt0106220'
p497
S'tt4103972(remains of the day, the (1993))::tt3446062(babysitter, the (1995))::tt0111127(serial mom (1994))::tt0779794(boys life (1995))::tt0109891(getting even with dad (1994))'
p498
sS'tt0075314'
p499
S'tt0059448(mirage (1995))::tt0113677(living in oblivion (1995))::tt0109198(bad girls (1994))::tt0108162(sliver (1993))::tt3507484(flesh and bone (1993))'
p500
sS'tt0110299'
p501
S'tt0111256(speechless (1994))::tt0109198(bad girls (1994))::tt0230877(three musketeers, the (1993))::tt4103972(remains of the day, the (1993))::tt1595032(underneath (1995))'
p502
sS'tt0977855'
p503
S'tt0114496(something to talk about (1995))::tt0109579(death and the maiden (1994))::tt1595032(underneath (1995))::tt0360307(richie rich (1994))::tt0230877(three musketeers, the (1993))'
p504
sS'tt0110296'
p505
S'tt0112471(before sunrise (1995))::499(mr. wonderful (1993))::tt0111301(street fighter (1994))::tt0109198(bad girls (1994))::tt0074102(in the realm of the senses (ai no corrida) (1976))'
p506
sS'tt0107478'
p507
S'tt0114496(something to talk about (1995))::tt0109891(getting even with dad (1994))::tt3446062(babysitter, the (1995))::tt0230877(three musketeers, the (1993))::tt4103972(remains of the day, the (1993))'
p508
sS'tt0109707'
p509
S'tt0113677(living in oblivion (1995))::tt0115639(beautiful girls (1996))::tt0038650(wonderful, horrible life of leni riefenstahl, the (macht der bilder: leni riefenstahl, die) (1993))::tt0360307(richie rich (1994))::tt0079758(prophecy, the (1995))'
p510
sS'tt0112427'
p511
S'tt0114496(something to talk about (1995))::tt0230877(three musketeers, the (1993))::tt0096895(batman (1989))::tt0109198(bad girls (1994))::tt1595032(underneath (1995))'
p512
sS'tt0107978'
p513
S'tt0079758(prophecy, the (1995))::tt0109579(death and the maiden (1994))::tt0230877(three musketeers, the (1993))::tt0111742(wolf (1994))::tt0112572(brady bunch movie, the (1995))'
p514
sS'tt0109759'
p515
S'tt0112495(beyond rangoon (1995))::tt3446062(babysitter, the (1995))::tt4103972(remains of the day, the (1993))::tt0257315(my family (1995))::tt0380167(addiction, the (1995))'
p516
sS'tt0109758'
p517
S'tt0111256(speechless (1994))::tt0779794(boys life (1995))::tt3446062(babysitter, the (1995))::tt0112572(brady bunch movie, the (1995))::tt1595680(being human (1993))'
p518
sS'tt0105275'
p519
S'tt0114496(something to talk about (1995))::tt0109198(bad girls (1994))::tt0109450(cobb (1994))::tt0109579(death and the maiden (1994))::tt0106292(another stakeout (1993))'
p520
sS'tt0113973'
p521
S'tt3446062(babysitter, the (1995))::tt0107478(made in america (1993))::tt1391741(walking dead, the (1995))::tt0114496(something to talk about (1995))::tt0114296(roommates (1995))'
p522
sS'tt0115639'
p523
S'tt0360307(richie rich (1994))::tt4103972(remains of the day, the (1993))::tt3446062(babysitter, the (1995))::tt0111256(speechless (1994))::tt0779794(boys life (1995))'
p524
sS'tt0108238'
p525
S'tt0110997(river wild, the (1994))::tt0112818(dead man walking (1995))::tt0109891(getting even with dad (1994))::tt1595032(underneath (1995))::tt0110657(next karate kid, the (1994))'
p526
sS'tt0116260'
p527
S'tt0499556(war, the (1994))::tt0107057(guilty as sin (1993))::tt0380167(addiction, the (1995))::tt1595680(being human (1993))::tt0114496(something to talk about (1995))'
p528
sS'tt0366178'
p529
S'tt0114852(village of the damned (1995))::tt0112572(brady bunch movie, the (1995))::tt0115639(beautiful girls (1996))::tt0058450(umbrellas of cherbourg, the (parapluies de cherbourg, les) (1964))::tt0106292(another stakeout (1993))'
p530
sS'tt0113409'
p531
S'tt0230877(three musketeers, the (1993))::tt0111127(serial mom (1994))::tt0110729(once were warriors (1994))::tt0360307(richie rich (1994))::tt0114852(village of the damned (1995))'
p532
sS'tt0251413'
p533
S'tt0111742(wolf (1994))::tt0230877(three musketeers, the (1993))::tt0114496(something to talk about (1995))::tt0109198(bad girls (1994))::tt0360307(richie rich (1994))'
p534
sS'tt0114808'
p535
S'tt0109642(dolores claiborne (1995))::tt0111256(speechless (1994))::tt4103972(remains of the day, the (1993))::tt0114296(roommates (1995))::tt0117002(mary reilly (1996))'
p536
sS'tt0114805'
p537
S"tt0257315(my family (1995))::62(mr. holland's opus (1995))::tt0038650(wonderful, horrible life of leni riefenstahl, the (macht der bilder: leni riefenstahl, die) (1993))::tt0111256(speechless (1994))::tt0110950(reality bites (1994))"
p538
sS'tt0107076'
p539
S'tt0109891(getting even with dad (1994))::tt0107478(made in america (1993))::tt0113326(rumble in the bronx (hont faan kui) (1995))::tt0059448(mirage (1995))::tt0112744(crossing guard, the (1995))'
p540
sS'tt0110997'
p541
S'tt0230877(three musketeers, the (1993))::tt0109198(bad girls (1994))::tt3446062(babysitter, the (1995))::tt1595032(underneath (1995))::tt0114496(something to talk about (1995))'
p542
sS'tt3673944'
p543
S'tt2167202(getaway, the (1994))::tt0779794(boys life (1995))::tt0110657(next karate kid, the (1994))::tt0109891(getting even with dad (1994))::tt0115645(before and after (1996))'
p544
sS'tt0109508'
p545
S'tt0111756(wyatt earp (1994))::tt0107507(manhattan murder mystery (1993))::tt0114388(sense and sensibility (1995))::tt0115645(before and after (1996))::tt0360307(richie rich (1994))'
p546
sS'tt0113089'
p547
S'tt4103972(remains of the day, the (1993))::tt0109579(death and the maiden (1994))::tt0109891(getting even with dad (1994))::tt0230877(three musketeers, the (1993))::tt0111127(serial mom (1994))'
p548
sS'tt0109504'
p549
S"62(mr. holland's opus (1995))::tt0114496(something to talk about (1995))::tt0230877(three musketeers, the (1993))::tt3446062(babysitter, the (1995))::tt0109891(getting even with dad (1994))"
p550
sS'tt0104779'
p551
S'tt0074102(in the realm of the senses (ai no corrida) (1976))::83(once upon a time... when we were colored (1995))::tt0114496(something to talk about (1995))::tt1595032(underneath (1995))::tt0113097(forget paris (1995))'
p552
sS'tt0108052'
p553
S'tt0114496(something to talk about (1995))::tt0116483(happy gilmore (1996))::tt0109306(blue sky (1994))::tt0230877(three musketeers, the (1993))::tt0050022(gumby: the movie (1995))'
p554
sS'tt0109297'
p555
S'tt0230877(three musketeers, the (1993))::tt0499556(war, the (1994))::tt1595032(underneath (1995))::tt0112572(brady bunch movie, the (1995))::tt0114496(something to talk about (1995))'
p556
sS'tt0043362'
p557
S"tt0106677(dazed and confused (1993))::62(mr. holland's opus (1995))::tt0111127(serial mom (1994))::tt4103972(remains of the day, the (1993))::tt0230877(three musketeers, the (1993))"
p558
sS'tt0113107'
p559
S'tt0109579(death and the maiden (1994))::tt0114496(something to talk about (1995))::tt4103972(remains of the day, the (1993))::tt0059448(mirage (1995))::tt0230877(three musketeers, the (1993))'
p560
sS'tt0113101'
p561
S'tt0112572(brady bunch movie, the (1995))::tt3446062(babysitter, the (1995))::tt0109198(bad girls (1994))::tt0111127(serial mom (1994))::tt0230877(three musketeers, the (1993))'
p562
sS'tt0113537'
p563
S'tt0058450(umbrellas of cherbourg, the (parapluies de cherbourg, les) (1964))::tt0111732(with honors (1994))::tt0110950(reality bites (1994))::tt0114296(roommates (1995))::tt0115639(beautiful girls (1996))'
p564
sS'tt1677073'
p565
S'tt0115759(broken arrow (1996))::tt0230877(three musketeers, the (1993))::tt0360307(richie rich (1994))::tt0050022(gumby: the movie (1995))::tt0111742(wolf (1994))'
p566
sS'tt0110538'
p567
S"tt1467412(up close and personal (1996))::tt0117002(mary reilly (1996))::tt0111256(speechless (1994))::tt2993648(what's love got to do with it? (1993))::tt0110950(reality bites (1994))"
p568
sS'tt0113538'
p569
S'tt0108255(super mario bros. (1993))::tt2167202(getaway, the (1994))::tt0360307(richie rich (1994))::tt0230877(three musketeers, the (1993))::tt0112883(don juan demarco (1995))'
p570
sS'tt0107206'
p571
S'tt0499556(war, the (1994))::tt1595032(underneath (1995))::tt0116483(happy gilmore (1996))::tt0110657(next karate kid, the (1994))::tt0230877(three musketeers, the (1993))'
p572
sS'tt0111323'
p573
S'tt4103972(remains of the day, the (1993))::tt0111742(wolf (1994))::tt0109813(flintstones, the (1994))::tt0360307(richie rich (1994))::tt0113089(fluke (1995))'
p574
sS'tt0111454'
p575
S'tt0109891(getting even with dad (1994))::tt0107478(made in america (1993))::tt3446062(babysitter, the (1995))::tt0110729(once were warriors (1994))::tt0050022(gumby: the movie (1995))'
p576
sS'tt0095016'
p577
S'tt0113277(heat (1995))::tt0108122(short cuts (1993))::tt0116253(executive decision (1996))::tt0110657(next karate kid, the (1994))::tt0106292(another stakeout (1993))'
p578
sS'tt0109370'
p579
S'tt0230877(three musketeers, the (1993))::tt0779794(boys life (1995))::tt0114496(something to talk about (1995))::tt1595032(underneath (1995))::tt0257315(my family (1995))'
p580
sS'tt0111756'
p581
S'tt0109891(getting even with dad (1994))::tt4103972(remains of the day, the (1993))::tt0109198(bad girls (1994))::tt0109579(death and the maiden (1994))::tt0113089(fluke (1995))'
p582
sS'tt0109579'
p583
S'tt0114496(something to talk about (1995))::tt0230877(three musketeers, the (1993))::tt4103972(remains of the day, the (1993))::tt0113089(fluke (1995))::tt1595032(underneath (1995))'
p584
sS'tt0111282'
p585
S'tt0230877(three musketeers, the (1993))::tt0050022(gumby: the movie (1995))::tt0109198(bad girls (1994))::tt0360307(richie rich (1994))::tt0109579(death and the maiden (1994))'
p586
sS'369'
p587
S'tt0114496(something to talk about (1995))::tt0360307(richie rich (1994))::tt0109198(bad girls (1994))::tt0050022(gumby: the movie (1995))::tt1595032(underneath (1995))'
p588
sS'tt0107756'
p589
S'tt0230877(three musketeers, the (1993))::tt4103972(remains of the day, the (1993))::tt0114296(roommates (1995))::tt3446062(babysitter, the (1995))::tt0109579(death and the maiden (1994))'
p590
sS'tt0112342'
p591
S'tt0113691(losing isaiah (1995))::tt0779794(boys life (1995))::tt4103972(remains of the day, the (1993))::tt0058450(umbrellas of cherbourg, the (parapluies de cherbourg, les) (1964))::tt0934676(little princess, a (1995))'
p592
sS'tt0112346'
p593
S'tt0230877(three musketeers, the (1993))::tt0111256(speechless (1994))::tt0109579(death and the maiden (1994))::tt0113987(nixon (1995))::tt0147800(hate (haine, la) (1995))'
p594
sS'key'
p595
S'value'
p596
sS'tt0388976'
p597
S'tt0108122(short cuts (1993))::tt0109198(bad girls (1994))::tt0230877(three musketeers, the (1993))::tt0038650(wonderful, horrible life of leni riefenstahl, the (macht der bilder: leni riefenstahl, die) (1993))::tt0050022(gumby: the movie (1995))'
p598
sS'tt0113749'
p599
S'tt0360307(richie rich (1994))::tt0230877(three musketeers, the (1993))::tt0115645(before and after (1996))::tt0114496(something to talk about (1995))::tt0116367(from dusk till dawn (1996))'
p600
sS'tt0113627'
p601
S'tt0257315(my family (1995))::tt0110657(next karate kid, the (1994))::tt0109198(bad girls (1994))::tt0115645(before and after (1996))::tt0110357(lion king, the (1994))'
p602
sS'tt0114069'
p603
S'tt0257315(my family (1995))::tt0050022(gumby: the movie (1995))::tt0230877(three musketeers, the (1993))::tt3446062(babysitter, the (1995))::tt0111742(wolf (1994))'
p604
sS'tt0050022'
p605
S'tt0360307(richie rich (1994))::tt3446062(babysitter, the (1995))::tt0230877(three musketeers, the (1993))::tt0114496(something to talk about (1995))::tt4103972(remains of the day, the (1993))'
p606
sS'tt0114388'
p607
S'tt0360307(richie rich (1994))::tt0111256(speechless (1994))::tt3446062(babysitter, the (1995))::tt0779794(boys life (1995))::tt2167202(getaway, the (1994))'
p608
sS'tt0106673'
p609
S'tt0103639(aladdin (1992))::tt0280486(bad company (1995))::tt1595032(underneath (1995))::tt0107554(menace ii society (1993))::tt0230877(three musketeers, the (1993))'
p610
sS'tt0106677'
p611
S"62(mr. holland's opus (1995))::tt0360307(richie rich (1994))::tt0230877(three musketeers, the (1993))::tt4103972(remains of the day, the (1993))::tt0050022(gumby: the movie (1995))"
p612
sS'tt0114148'
p613
S"tt0230877(three musketeers, the (1993))::tt0114496(something to talk about (1995))::tt0112966(englishman who went up a hill but came down a mountain, the (1995))::62(mr. holland's opus (1995))::tt0779794(boys life (1995))"
p614
sS'tt0116367'
p615
S'tt0113749(mallrats (1995))::tt0230877(three musketeers, the (1993))::tt0111742(wolf (1994))::tt0360307(richie rich (1994))::tt0050022(gumby: the movie (1995))'
p616
sS'tt0110399'
p617
S'tt0114496(something to talk about (1995))::tt0107478(made in america (1993))::tt0109198(bad girls (1994))::tt3446062(babysitter, the (1995))::tt0111742(wolf (1994))'
p618
sS'tt0112462'
p619
S'tt0230877(three musketeers, the (1993))::tt0113691(losing isaiah (1995))::tt0058450(umbrellas of cherbourg, the (parapluies de cherbourg, les) (1964))::tt0114496(something to talk about (1995))::tt0111742(wolf (1994))'
p620
sS'tt0112461'
p621
S'tt0106677(dazed and confused (1993))::tt0113749(mallrats (1995))::tt0779794(boys life (1995))::tt0114478(smoke (1995))::tt0147800(hate (haine, la) (1995))'
p622
sS'tt0114367'
p623
S'tt0230877(three musketeers, the (1993))::tt0380167(addiction, the (1995))::tt3446062(babysitter, the (1995))::tt0079758(prophecy, the (1995))::tt0058450(umbrellas of cherbourg, the (parapluies de cherbourg, les) (1964))'
p624
sS'tt0110391'
p625
S'tt0111742(wolf (1994))::tt0111127(serial mom (1994))::tt3446062(babysitter, the (1995))::tt0109579(death and the maiden (1994))::tt0230877(three musketeers, the (1993))'
p626
sS'tt0109655'
p627
S'tt0116483(happy gilmore (1996))::tt0779794(boys life (1995))::tt0230877(three musketeers, the (1993))::tt0111127(serial mom (1994))::tt0109891(getting even with dad (1994))'
p628
sS'62'
p629
S'tt0106677(dazed and confused (1993))::tt1595032(underneath (1995))::tt0230877(three musketeers, the (1993))::tt0114496(something to talk about (1995))::tt0109198(bad girls (1994))'
p630
sS'tt0112508'
p631
S'tt4947656(simple twist of fate, a (1994))::tt2167202(getaway, the (1994))::tt0113101(four rooms (1995))::tt0110657(next karate kid, the (1994))::tt0114069(outbreak (1995))'
p632
sS'tt0113967'
p633
S'tt0111173(shopping (1994))::tt0113089(fluke (1995))::tt0114496(something to talk about (1995))::tt0115759(broken arrow (1996))::tt0111400(terminal velocity (1994))'
p634
sS'tt0106697'
p635
S'tt2747352(specialist, the (1994))::tt1842530(unforgettable (1996))::tt0388976(heidi fleiss: hollywood madam (1995))::tt0108122(short cuts (1993))::tt0111400(terminal velocity (1994))'
p636
sS'tt0074102'
p637
S'tt0114496(something to talk about (1995))::tt0230877(three musketeers, the (1993))::tt1595032(underneath (1995))::tt0109891(getting even with dad (1994))::tt3446062(babysitter, the (1995))'
p638
sS'tt0113845'
p639
S'tt0109891(getting even with dad (1994))::tt0106292(another stakeout (1993))::tt0110657(next karate kid, the (1994))::tt0779794(boys life (1995))::tt0111742(wolf (1994))'
p640
sS'tt0114663'
p641
S'tt0110737(only you (1994))::tt0111161(shawshank redemption, the (1994))::tt3507484(flesh and bone (1993))::tt0111256(speechless (1994))::tt0110305(lassie (1994))'
p642
sS'tt0114709'
p643
S'tt0111127(serial mom (1994))::tt0111742(wolf (1994))::tt0110657(next karate kid, the (1994))::tt0934676(little princess, a (1995))::tt0118375(king of the hill (1993))'
p644
sS'tt0114660'
p645
S'tt0257315(my family (1995))::tt0147800(hate (haine, la) (1995))::tt0114852(village of the damned (1995))::tt0109891(getting even with dad (1994))::tt0110357(lion king, the (1994))'
p646
sS'tt0114666'
p647
S'tt0107057(guilty as sin (1993))::tt0114388(sense and sensibility (1995))::tt0113501(just cause (1995))::tt0108122(short cuts (1993))::tt0112744(crossing guard, the (1995))'
p648
sS'tt0108174'
p649
S'tt0115645(before and after (1996))::tt0230877(three musketeers, the (1993))::tt0114496(something to talk about (1995))::tt4103972(remains of the day, the (1993))::tt0109891(getting even with dad (1994))'
p650
sS'tt0107616'
p651
S'tt0257315(my family (1995))::tt0230877(three musketeers, the (1993))::tt0360307(richie rich (1994))::tt4103972(remains of the day, the (1993))::tt0114496(something to talk about (1995))'
p652
sS'tt0114702'
p653
S'tt0115645(before and after (1996))::tt0779794(boys life (1995))::tt4103972(remains of the day, the (1993))::tt0109891(getting even with dad (1994))::tt0114496(something to talk about (1995))'
p654
sS'tt0483726'
p655
S'tt0109813(flintstones, the (1994))::tt0079758(prophecy, the (1995))::tt0257315(my family (1995))::tt0230877(three musketeers, the (1993))::tt0109370(canadian bacon (1995))'
p656
sS'tt0110137'
p657
S'tt0115645(before and after (1996))::tt0111054(safe passage (1994))::tt0779794(boys life (1995))::tt0112495(beyond rangoon (1995))::tt0110657(next karate kid, the (1994))'
p658
sS'tt0103064'
p659
S'tt1595032(underneath (1995))::tt0109891(getting even with dad (1994))::tt0112744(crossing guard, the (1995))::tt0113501(just cause (1995))::tt0110657(next karate kid, the (1994))'
p660
sS'tt0058450'
p661
S'tt4103972(remains of the day, the (1993))::tt0230877(three musketeers, the (1993))::tt0114496(something to talk about (1995))::tt0109891(getting even with dad (1994))::tt0779794(boys life (1995))'
p662
sS'tt0056016'
p663
S'tt0230877(three musketeers, the (1993))::tt0113089(fluke (1995))::tt0114496(something to talk about (1995))::tt0050022(gumby: the movie (1995))::tt0114852(village of the damned (1995))'
p664
sS'tt0114681'
p665
S'tt0114496(something to talk about (1995))::tt0779794(boys life (1995))::tt0230877(three musketeers, the (1993))::tt0109891(getting even with dad (1994))::tt3446062(babysitter, the (1995))'
p666
sS'tt0114682'
p667
S"tt0108122(short cuts (1993))::tt0106660(dangerous game (1993))::tt0107653(naked (1993))::tt0114928(white man's burden (1995))::tt0059448(mirage (1995))"
p668
sS'tt0109254'
p669
S'tt0107302(kalifornia (1993))::tt0115759(broken arrow (1996))::tt1595032(underneath (1995))::tt0112966(englishman who went up a hill but came down a mountain, the (1995))::tt0107057(guilty as sin (1993))'
p670
sS'tt0089560'
p671
S'tt0111127(serial mom (1994))::tt0779794(boys life (1995))::tt0110657(next karate kid, the (1994))::tt0050022(gumby: the movie (1995))::tt0113691(losing isaiah (1995))'
p672
sS'tt0110882'
p673
S'tt0109370(canadian bacon (1995))::tt0058450(umbrellas of cherbourg, the (parapluies de cherbourg, les) (1964))::tt1425253(shadow, the (1994))::tt0112579(bridges of madison county, the (1995))::tt0230877(three musketeers, the (1993))'
p674
sS'tt0075640'
p675
S'tt0114852(village of the damned (1995))::tt0109642(dolores claiborne (1995))::tt0230877(three musketeers, the (1993))::tt0111742(wolf (1994))::tt0113089(fluke (1995))'
p676
sS'tt0110148'
p677
S'tt2167202(getaway, the (1994))::tt4947656(simple twist of fate, a (1994))::tt0111742(wolf (1994))::tt3446062(babysitter, the (1995))::tt0107057(guilty as sin (1993))'
p678
sS'tt0097332'
p679
S'tt0107302(kalifornia (1993))::tt0108122(short cuts (1993))::tt0109642(dolores claiborne (1995))::tt0107057(guilty as sin (1993))::tt0109906(the glass shield (1994))'
p680
sS'tt0360307'
p681
S'tt0050022(gumby: the movie (1995))::tt0111127(serial mom (1994))::tt0109891(getting even with dad (1994))::tt0230877(three musketeers, the (1993))::tt0109198(bad girls (1994))'
p682
sS'tt0869994'
p683
S'tt0112572(brady bunch movie, the (1995))::tt0110950(reality bites (1994))::tt0111003(puppet masters, the (1994))::tt4103972(remains of the day, the (1993))::tt3446062(babysitter, the (1995))'
p684
sS'tt0118002'
p685
S'tt0109891(getting even with dad (1994))::tt0111742(wolf (1994))::tt0108174(so i married an axe murderer (1993))::tt4103972(remains of the day, the (1993))::tt0360307(richie rich (1994))'
p686
sS'tt0109439'
p687
S'tt0114496(something to talk about (1995))::tt0050022(gumby: the movie (1995))::tt0360307(richie rich (1994))::tt0107478(made in america (1993))::tt3446062(babysitter, the (1995))'
p688
sS'tt0111712'
p689
S'tt0108122(short cuts (1993))::tt4103972(remains of the day, the (1993))::tt0360307(richie rich (1994))::tt0114496(something to talk about (1995))::tt0230877(three musketeers, the (1993))'
p690
sS'tt0109021'
p691
S'tt0114496(something to talk about (1995))::tt0230877(three musketeers, the (1993))::tt0779794(boys life (1995))::tt0109891(getting even with dad (1994))::tt0111003(puppet masters, the (1994))'
p692
sS'tt0108002'
p693
S'tt0360307(richie rich (1994))::tt0116483(happy gilmore (1996))::tt0109198(bad girls (1994))::tt0230877(three musketeers, the (1993))::tt0111256(speechless (1994))'
p694
sS'tt0108000'
p695
S'tt0110357(lion king, the (1994))::tt0109891(getting even with dad (1994))::tt0114214(quick and the dead, the (1995))::tt0360307(richie rich (1994))::tt0111256(speechless (1994))'
p696
sS'tt0113442'
p697
S'tt0360307(richie rich (1994))::tt0108122(short cuts (1993))::tt0111333(swan princess, the (1994))::tt4103972(remains of the day, the (1993))::tt0111127(serial mom (1994))'
p698
sS'tt3446062'
p699
S'tt0230877(three musketeers, the (1993))::tt0050022(gumby: the movie (1995))::tt0112572(brady bunch movie, the (1995))::tt0111127(serial mom (1994))::tt0114496(something to talk about (1995))'
p700
sS'tt0103994'
p701
S'tt0111127(serial mom (1994))::tt1595680(being human (1993))::tt0111256(speechless (1994))::tt0779794(boys life (1995))::tt3446062(babysitter, the (1995))'
p702
sS'tt0112715'
p703
S"tt1595032(underneath (1995))::tt0230877(three musketeers, the (1993))::62(mr. holland's opus (1995))::tt0360307(richie rich (1994))::tt0109891(getting even with dad (1994))"
p704
sS'tt0113972'
p705
S'tt0113101(four rooms (1995))::tt2167202(getaway, the (1994))::tt0116253(executive decision (1996))::tt0230877(three musketeers, the (1993))::tt0110997(river wild, the (1994))'
p706
sS'tt0110443'
p707
S"tt1425253(shadow, the (1994))::tt0111742(wolf (1994))::tt0113277(heat (1995))::62(mr. holland's opus (1995))::tt0106292(another stakeout (1993))"
p708
sS'tt0112722'
p709
S'tt2747352(specialist, the (1994))::tt0107302(kalifornia (1993))::tt0109906(the glass shield (1994))::tt0110632(natural born killers (1994))::tt0108174(so i married an axe murderer (1993))'
p710
sS'tt0113540'
p711
S'tt0109450(cobb (1994))::tt0113677(living in oblivion (1995))::tt0230877(three musketeers, the (1993))::tt0109198(bad girls (1994))::tt0107478(made in america (1993))'
p712
sS'tt0112688'
p713
S'tt3446062(babysitter, the (1995))::tt0114296(roommates (1995))::tt0114496(something to talk about (1995))::tt0107478(made in america (1993))::tt0109891(getting even with dad (1994))'
p714
sS'tt0111400'
p715
S'tt0360307(richie rich (1994))::tt0230877(three musketeers, the (1993))::tt0111742(wolf (1994))::tt3446062(babysitter, the (1995))::tt0114496(something to talk about (1995))'
p716
sS'tt0107818'
p717
S'tt0113691(losing isaiah (1995))::tt0109579(death and the maiden (1994))::tt0779794(boys life (1995))::tt0112462(batman forever (1995))::tt1595032(underneath (1995))'
p718
sS'tt0113149'
p719
S'tt0114296(roommates (1995))::tt0111503(true lies (1994))::tt3446062(babysitter, the (1995))::tt0114496(something to talk about (1995))::tt0074102(in the realm of the senses (ai no corrida) (1976))'
p720
sS'tt0112760'
p721
S'tt0107554(menace ii society (1993))::tt0112966(englishman who went up a hill but came down a mountain, the (1995))::tt0230877(three musketeers, the (1993))::tt0050022(gumby: the movie (1995))::tt0111400(terminal velocity (1994))'
p722
sS'tt0109443'
p723
S'tt0230877(three musketeers, the (1993))::tt0114496(something to talk about (1995))::tt4103972(remains of the day, the (1993))::tt0059448(mirage (1995))::tt0115645(before and after (1996))'
p724
sS'tt0109445'
p725
S'tt0113986(nine months (1995))::tt0108328(thirty-two short films about glenn gould (1993))::tt0108122(short cuts (1993))::tt0113749(mallrats (1995))::tt0115645(before and after (1996))'
p726
sS'tt0109444'
p727
S'tt0230877(three musketeers, the (1993))::tt0109579(death and the maiden (1994))::tt0114496(something to talk about (1995))::tt0360307(richie rich (1994))::tt0050022(gumby: the movie (1995))'
p728
sS'tt2167202'
p729
S'tt3446062(babysitter, the (1995))::tt0230877(three musketeers, the (1993))::tt1595032(underneath (1995))::tt0109579(death and the maiden (1994))::tt0050022(gumby: the movie (1995))'
p730
sS'tt0112541'
p731
S'tt0114478(smoke (1995))::tt0059448(mirage (1995))::tt0115639(beautiful girls (1996))::tt0107096(heaven & earth (1993))::tt0108328(thirty-two short films about glenn gould (1993))'
p732
sS'tt0104029'
p733
S'tt3446062(babysitter, the (1995))::tt0230877(three musketeers, the (1993))::tt0109198(bad girls (1994))::tt4103972(remains of the day, the (1993))::tt0050022(gumby: the movie (1995))'
p734
sS'tt0113808'
p735
S"tt0111054(safe passage (1994))::tt0111127(serial mom (1994))::tt0257315(my family (1995))::tt3446062(babysitter, the (1995))::tt2993648(what's love got to do with it? (1993))"
p736
sS'tt0109842'
p737
S'tt0112688(clockers (1995))::tt0934676(little princess, a (1995))::tt0230877(three musketeers, the (1993))::tt0114496(something to talk about (1995))::tt0109891(getting even with dad (1994))'
p738
sS'tt0257315'
p739
S'tt4103972(remains of the day, the (1993))::tt0230877(three musketeers, the (1993))::tt3446062(babysitter, the (1995))::tt0109198(bad girls (1994))::tt0109891(getting even with dad (1994))'
p740
sS'tt0110657'
p741
S'tt0230877(three musketeers, the (1993))::tt0111127(serial mom (1994))::tt1595032(underneath (1995))::tt3446062(babysitter, the (1995))::tt4103972(remains of the day, the (1993))'
p742
sS'misrables'
p743
S'tt0230877(three musketeers, the (1993))::tt0079758(prophecy, the (1995))::tt0050022(gumby: the movie (1995))::tt0114478(smoke (1995))::tt0108328(thirty-two short films about glenn gould (1993))'
p744
sS'tt1369497'
p745
S'tt0111742(wolf (1994))::tt4103972(remains of the day, the (1993))::tt0112579(bridges of madison county, the (1995))::tt0116483(happy gilmore (1996))::tt0109579(death and the maiden (1994))'
p746
sS'tt0110367'
p747
S'tt0111161(shawshank redemption, the (1994))::tt0111127(serial mom (1994))::tt0113089(fluke (1995))::tt0109891(getting even with dad (1994))::tt3446062(babysitter, the (1995))'
p748
sS'tt0110365'
p749
S'tt0113089(fluke (1995))::tt0111127(serial mom (1994))::tt0112818(dead man walking (1995))::tt0109370(canadian bacon (1995))::tt0112572(brady bunch movie, the (1995))'
p750
sS'tt0110363'
p751
S'tt0112715(congo (1995))::tt0230877(three musketeers, the (1993))::tt2167202(getaway, the (1994))::tt0109579(death and the maiden (1994))::tt0112572(brady bunch movie, the (1995))'
p752
sS'tt0114746'
p753
S'tt0079758(prophecy, the (1995))::tt0115683(bio-dome (1996))::tt0113243(hackers (1995))::tt3446062(babysitter, the (1995))::tt0114069(outbreak (1995))'
p754
sS'tt0106452'
p755
S'tt0114496(something to talk about (1995))::tt0230877(three musketeers, the (1993))::tt0779794(boys life (1995))::tt4103972(remains of the day, the (1993))::tt0114852(village of the damned (1995))'
p756
sS'tt0106966'
p757
S'tt0110099(i.q. (1994))::tt0111256(speechless (1994))::tt0779794(boys life (1995))::tt0107554(menace ii society (1993))::tt4103972(remains of the day, the (1993))'
p758
sS'tt0106965'
p759
S'tt0360307(richie rich (1994))::tt4103972(remains of the day, the (1993))::tt0230877(three musketeers, the (1993))::tt1595032(underneath (1995))::tt0114496(something to talk about (1995))'
p760
sS'tt0110598'
p761
S'tt0115639(beautiful girls (1996))::tt0360307(richie rich (1994))::tt4103972(remains of the day, the (1993))::tt0108122(short cuts (1993))::tt0114296(roommates (1995))'
p762
sS'tt0114594'
p763
S'tt1781922(no escape (1994))::tt0109891(getting even with dad (1994))::tt0110657(next karate kid, the (1994))::tt0111488(trial by jury (1994))::tt0230877(three musketeers, the (1993))'
p764
sS'tt0114885'
p765
S'tt0109198(bad girls (1994))::tt0113101(four rooms (1995))::tt0230877(three musketeers, the (1993))::tt4103972(remains of the day, the (1993))::tt0112579(bridges of madison county, the (1995))'
p766
sS'tt0110912'
p767
S'tt0108122(short cuts (1993))::tt0109198(bad girls (1994))::tt0111742(wolf (1994))::tt3446062(babysitter, the (1995))::tt0114852(village of the damned (1995))'
p768
sS'tt0114928'
p769
S'tt0107478(made in america (1993))::tt0112572(brady bunch movie, the (1995))::tt0113101(four rooms (1995))::498 (mr. jones (1993))::tt3446062(babysitter, the (1995))'
p770
sS'tt0114924'
p771
S'tt0112572(brady bunch movie, the (1995))::tt0111127(serial mom (1994))::tt4103972(remains of the day, the (1993))::tt0116483(happy gilmore (1996))::tt0115639(beautiful girls (1996))'
p772
sS'tt1781922'
p773
S"tt3446062(babysitter, the (1995))::tt1595032(underneath (1995))::tt0230877(three musketeers, the (1993))::62(mr. holland's opus (1995))::tt0109891(getting even with dad (1994))"
p774
sS'tt0114558'
p775
S'tt0115645(before and after (1996))::tt0108122(short cuts (1993))::tt0113677(living in oblivion (1995))::tt0106677(dazed and confused (1993))::tt0109198(bad girls (1994))'
p776
sS'tt0106400'
p777
S'tt0109891(getting even with dad (1994))::tt4103972(remains of the day, the (1993))::tt0111256(speechless (1994))::tt0114496(something to talk about (1995))::tt3446062(babysitter, the (1995))'
p778
sS'tt0112431'
p779
S'tt0114496(something to talk about (1995))::tt0111161(shawshank redemption, the (1994))::tt0107478(made in america (1993))::tt0257315(my family (1995))::tt0050022(gumby: the movie (1995))'
p780
sS'tt0106402'
p781
S'tt0110997(river wild, the (1994))::tt1595032(underneath (1995))::tt0109891(getting even with dad (1994))::tt0114496(something to talk about (1995))::tt0360307(richie rich (1994))'
p782
sS'tt0112435'
p783
S"tt0106677(dazed and confused (1993))::tt0109891(getting even with dad (1994))::tt0360307(richie rich (1994))::62(mr. holland's opus (1995))::tt0230877(three musketeers, the (1993))"
p784
sS'tt0106408'
p785
S'tt0109198(bad girls (1994))::tt3446062(babysitter, the (1995))::tt0111127(serial mom (1994))::tt0230877(three musketeers, the (1993))::tt0114852(village of the damned (1995))'
p786
sS'tt0034928'
p787
S'tt0112966(englishman who went up a hill but came down a mountain, the (1995))::tt0106452(body snatchers (1993))::tt0111127(serial mom (1994))::tt0779794(boys life (1995))::tt3446062(babysitter, the (1995))'
p788
sS'tt4103972'
p789
S'tt0109891(getting even with dad (1994))::tt0111256(speechless (1994))::tt0113089(fluke (1995))::tt0114496(something to talk about (1995))::tt0230877(three musketeers, the (1993))'
p790
sS'tt0110186'
p791
S'tt0779794(boys life (1995))::tt0115639(beautiful girls (1996))::tt0112819(dead presidents (1995))::tt0111256(speechless (1994))::tt0058450(umbrellas of cherbourg, the (parapluies de cherbourg, les) (1964))'
p792
sS'tt0107969'
p793
S'tt0079758(prophecy, the (1995))::tt0109891(getting even with dad (1994))::tt0111742(wolf (1994))::tt0360307(richie rich (1994))::tt0050022(gumby: the movie (1995))'
p794
sS'tt0110622'
p795
S'tt0109891(getting even with dad (1994))::tt4103972(remains of the day, the (1993))::tt1595032(underneath (1995))::tt0115759(broken arrow (1996))::tt0111742(wolf (1994))'
p796
sS'tt0110620'
p797
S'tt0059448(mirage (1995))::tt0113326(rumble in the bronx (hont faan kui) (1995))::tt0106220(addams family values (1993))::tt3446062(babysitter, the (1995))::tt0109891(getting even with dad (1994))'
p798
sS'tt0109219'
p799
S'tt3446062(babysitter, the (1995))::tt0109444(clear and present danger (1994))::tt4103972(remains of the day, the (1993))::tt0230877(three musketeers, the (1993))::tt0106292(another stakeout (1993))'
p800
sS'tt0110216'
p801
S'tt0116483(happy gilmore (1996))::tt0111742(wolf (1994))::tt0114496(something to talk about (1995))::tt0112688(clockers (1995))::tt0106402(beyond bedlam (1993))'
p802
sS'tt0110963'
p803
S'tt0230877(three musketeers, the (1993))::tt0050022(gumby: the movie (1995))::tt0103639(aladdin (1992))::tt2167202(getaway, the (1994))::tt4103972(remains of the day, the (1993))'
p804
sS'tt0107144'
p805
S'tt0106220(addams family values (1993))::tt0112715(congo (1995))::tt0108255(super mario bros. (1993))::tt0109579(death and the maiden (1994))::tt0111742(wolf (1994))'
p806
sS'tt0111418'
p807
S'tt0113044(feast of july (1995))::tt0114496(something to talk about (1995))::tt0111256(speechless (1994))::tt0113749(mallrats (1995))::tt0779794(boys life (1995))'
p808
sS'tt0108186'
p809
S'tt0038650(wonderful, horrible life of leni riefenstahl, the (macht der bilder: leni riefenstahl, die) (1993))::tt0114496(something to talk about (1995))::tt0108122(short cuts (1993))::tt0115645(before and after (1996))::tt3446062(babysitter, the (1995))'
p810
sS'tt0110189'
p811
S'tt0111400(terminal velocity (1994))::tt3507484(flesh and bone (1993))::tt0110657(next karate kid, the (1994))::tt0360307(richie rich (1994))::tt0111488(trial by jury (1994))'
p812
sS'tt0107286'
p813
S"tt0107057(guilty as sin (1993))::tt1595032(underneath (1995))::tt0113118(friday (1995))::62(mr. holland's opus (1995))::tt0109198(bad girls (1994))"
p814
sS'tt0114814'
p815
S'tt0115759(broken arrow (1996))::tt0116367(from dusk till dawn (1996))::tt0111742(wolf (1994))::tt0110657(next karate kid, the (1994))::tt0116253(executive decision (1996))'
p816
sS'tt0115012'
p817
S'tt0111488(trial by jury (1994))::tt0050022(gumby: the movie (1995))::tt0108174(so i married an axe murderer (1993))::tt0111333(swan princess, the (1994))::tt0257315(my family (1995))'
p818
sS'tt0111201'
p819
S'tt0114496(something to talk about (1995))::tt0111256(speechless (1994))::tt0779794(boys life (1995))::tt0115645(before and after (1996))::tt1595032(underneath (1995))'
p820
sS'tt0109067'
p821
S'tt0230877(three musketeers, the (1993))::tt0109305(blue chips (1994))::tt0779794(boys life (1995))::tt0112715(congo (1995))::tt0109891(getting even with dad (1994))'
p822
sS'tt0109068'
p823
S'tt4103972(remains of the day, the (1993))::tt0114496(something to talk about (1995))::tt3446062(babysitter, the (1995))::tt1595032(underneath (1995))::tt0113089(fluke (1995))'
p824
sS'tt1467412'
p825
S'tt1595032(underneath (1995))::tt0360307(richie rich (1994))::tt0257315(my family (1995))::tt0111742(wolf (1994))::tt0050022(gumby: the movie (1995))'
p826
sS'tt0113326'
p827
S'tt0059448(mirage (1995))::tt1595032(underneath (1995))::tt0111301(street fighter (1994))::tt0109579(death and the maiden (1994))::tt0109198(bad girls (1994))'
p828
sS'tt0113987'
p829
S'tt0360307(richie rich (1994))::tt4103972(remains of the day, the (1993))::tt0230877(three musketeers, the (1993))::tt0113691(losing isaiah (1995))::tt0109198(bad girls (1994))'
p830
sS'tt0113986'
p831
S'tt0111127(serial mom (1994))::tt0109891(getting even with dad (1994))::tt1595032(underneath (1995))::tt0108174(so i married an axe murderer (1993))::tt4103972(remains of the day, the (1993))'
p832
sS'tt0113243'
p833
S'tt0360307(richie rich (1994))::tt0113691(losing isaiah (1995))::tt0109198(bad girls (1994))::tt1595032(underneath (1995))::tt0114496(something to talk about (1995))'
p834
sS'tt0107447'
p835
S"tt0111689(what happened was... (1994))::tt0112651(celluloid closet, the (1995))::tt0111256(speechless (1994))::tt2993648(what's love got to do with it? (1993))::tt0106880(fear of a black hat (1994))"
p836
sS'tt0113114'
p837
S'tt0106965(free willy (1993))::tt0779794(boys life (1995))::tt0230877(three musketeers, the (1993))::tt0360307(richie rich (1994))::tt0114496(something to talk about (1995))'
p838
sS'tt0106064'
p839
S'tt0106452(body snatchers (1993))::tt0115759(broken arrow (1996))::tt0111742(wolf (1994))::tt0109198(bad girls (1994))::tt0104029(cronos (1993))'
p840
sS'tt0113117'
p841
S'tt0257315(my family (1995))::tt1595680(being human (1993))::tt0109891(getting even with dad (1994))::tt0111003(puppet masters, the (1994))::tt0110950(reality bites (1994))'
p842
sS'tt0113118'
p843
S'tt0109891(getting even with dad (1994))::tt0114478(smoke (1995))::tt1595032(underneath (1995))::tt4103972(remains of the day, the (1993))::tt0360307(richie rich (1994))'
p844
sS'tt0113501'
p845
S'tt0110657(next karate kid, the (1994))::tt0109579(death and the maiden (1994))::tt0113101(four rooms (1995))::tt4103972(remains of the day, the (1993))::tt0107478(made in america (1993))'
p846
sS'tt0113500'
p847
S'tt4103972(remains of the day, the (1993))::tt0114496(something to talk about (1995))::tt0230877(three musketeers, the (1993))::tt0115645(before and after (1996))::tt0257315(my family (1995))'
p848
sS'tt0111333'
p849
S'tt4103972(remains of the day, the (1993))::tt0109891(getting even with dad (1994))::tt0360307(richie rich (1994))::tt0050022(gumby: the movie (1995))::tt0108122(short cuts (1993))'
p850
sS'tt0112651'
p851
S'tt1595032(underneath (1995))::tt0114496(something to talk about (1995))::tt0230877(three musketeers, the (1993))::tt0110657(next karate kid, the (1994))::tt0109579(death and the maiden (1994))'
p852
sS'tt0103639'
p853
S'tt0111333(swan princess, the (1994))::tt0114496(something to talk about (1995))::tt0111256(speechless (1994))::tt4103972(remains of the day, the (1993))::tt0111127(serial mom (1994))'
p854
sS'tt0109361'
p855
S"tt0360307(richie rich (1994))::tt0109198(bad girls (1994))::62(mr. holland's opus (1995))::tt0050022(gumby: the movie (1995))::tt4103972(remains of the day, the (1993))"
p856
sS'tt0116483'
p857
S'tt1595032(underneath (1995))::tt0114496(something to talk about (1995))::tt0109198(bad girls (1994))::tt0230877(three musketeers, the (1993))::tt0050022(gumby: the movie (1995))'
p858
sS'tt0779794'
p859
S'tt0109891(getting even with dad (1994))::tt0111127(serial mom (1994))::tt0230877(three musketeers, the (1993))::tt0113691(losing isaiah (1995))::tt4103972(remains of the day, the (1993))'
p860
sS'tt0109403'
p861
S'tt0230877(three musketeers, the (1993))::tt0114496(something to talk about (1995))::tt0779794(boys life (1995))::tt4103972(remains of the day, the (1993))::tt0360307(richie rich (1994))'
p862
sS'tt0113189'
p863
S'tt0114367(screamers (1995))::tt0083658(blade runner (1982))::tt0499556(war, the (1994))::tt0112715(congo (1995))::tt0111161(shawshank redemption, the (1994))'
p864
sS'tt0110971'
p865
S"62(mr. holland's opus (1995))::tt0111742(wolf (1994))::tt0110657(next karate kid, the (1994))::tt3446062(babysitter, the (1995))::tt0230877(three musketeers, the (1993))"
p866
sS'tt0112379'
p867
S'tt0230877(three musketeers, the (1993))::tt0114496(something to talk about (1995))::tt0109891(getting even with dad (1994))::tt1595032(underneath (1995))::tt3446062(babysitter, the (1995))'
p868
sS'tt0114478'
p869
S"tt0114496(something to talk about (1995))::tt1595032(underneath (1995))::tt0230877(three musketeers, the (1993))::tt0360307(richie rich (1994))::62(mr. holland's opus (1995))"
p870
sS'tt0112373'
p871
S'tt0114496(something to talk about (1995))::tt0114478(smoke (1995))::tt0112883(don juan demarco (1995))::tt1595032(underneath (1995))::tt0230877(three musketeers, the (1993))'
p872
sS'tt0083658'
p873
S'tt0779794(boys life (1995))::tt1595032(underneath (1995))::tt0109198(bad girls (1994))::tt0230877(three musketeers, the (1993))::tt0109891(getting even with dad (1994))'
p874
sS'tt1425253'
p875
S'tt0230877(three musketeers, the (1993))::tt0779794(boys life (1995))::tt0114496(something to talk about (1995))::tt4103972(remains of the day, the (1993))::tt3446062(babysitter, the (1995))'
p876
sS'tt0113612'
p877
S'tt0059448(mirage (1995))::tt0106660(dangerous game (1993))::tt0257315(my family (1995))::tt0114011(now and then (1995))::tt0113326(rumble in the bronx (hont faan kui) (1995))'
p878
sS'tt0111149'
p879
S"tt3446062(babysitter, the (1995))::tt0230877(three musketeers, the (1993))::62(mr. holland's opus (1995))::tt1595032(underneath (1995))::tt0111742(wolf (1994))"
p880
sS'tt0110005'
p881
S'tt0779794(boys life (1995))::tt0230877(three musketeers, the (1993))::tt0114496(something to talk about (1995))::tt0112744(crossing guard, the (1995))::tt0111127(serial mom (1994))'
p882
sS'tt0039628'
p883
S'tt0112572(brady bunch movie, the (1995))::tt0107413(life with mikey (1993))::498 (mr. jones (1993))::tt0116483(happy gilmore (1996))::tt0109198(bad girls (1994))'
p884
sS'tt0106292'
p885
S'tt0230877(three musketeers, the (1993))::tt0779794(boys life (1995))::tt0109891(getting even with dad (1994))::tt0114496(something to talk about (1995))::tt0111742(wolf (1994))'
p886
sS'tt0112697'
p887
S"tt0106677(dazed and confused (1993))::62(mr. holland's opus (1995))::tt0779794(boys life (1995))::tt0115639(beautiful girls (1996))::tt4947656(simple twist of fate, a (1994))"
p888
sS'tt0106660'
p889
S'tt0059448(mirage (1995))::tt0230877(three musketeers, the (1993))::tt0109198(bad girls (1994))::tt0110657(next karate kid, the (1994))::tt0113101(four rooms (1995))'
p890
sS'tt0111438'
p891
S'tt3446062(babysitter, the (1995))::tt0109198(bad girls (1994))::tt0109891(getting even with dad (1994))::tt4103972(remains of the day, the (1993))::tt1595032(underneath (1995))'
p892
sS'tt0038650'
p893
S"tt0230877(three musketeers, the (1993))::tt4103972(remains of the day, the (1993))::tt0109891(getting even with dad (1994))::62(mr. holland's opus (1995))::tt0114496(something to talk about (1995))"
p894
sS'tt0114214'
p895
S'tt0230877(three musketeers, the (1993))::tt0114496(something to talk about (1995))::tt0114852(village of the damned (1995))::tt0779794(boys life (1995))::tt0115639(beautiful girls (1996))'
p896
sS'tt0106339'
p897
S'tt0111256(speechless (1994))::tt4103972(remains of the day, the (1993))::tt0113749(mallrats (1995))::tt0360307(richie rich (1994))::tt0109198(bad girls (1994))'
p898
sS'tt0114210'
p899
S'tt0113691(losing isaiah (1995))::tt0109306(blue sky (1994))::tt0111127(serial mom (1994))::tt0111742(wolf (1994))::tt0779794(boys life (1995))'
p900
sS'tt0114609'
p901
S'498 (mr. jones (1993))::tt0108328(thirty-two short films about glenn gould (1993))::tt0112966(englishman who went up a hill but came down a mountain, the (1995))::tt1595032(underneath (1995))::tt0230877(three musketeers, the (1993))'
p902
sS'tt0112471'
p903
S'tt0113089(fluke (1995))::tt0109198(bad girls (1994))::tt4103972(remains of the day, the (1993))::tt0109891(getting even with dad (1994))::tt0107478(made in america (1993))'
p904
sS'tt0112679'
p905
S'tt0360307(richie rich (1994))::tt0050022(gumby: the movie (1995))::tt0114478(smoke (1995))::tt0106677(dazed and confused (1993))::tt0113749(mallrats (1995))'
p906
sS'tt0112571'
p907
S'tt0114496(something to talk about (1995))::tt0360307(richie rich (1994))::tt0230877(three musketeers, the (1993))::tt0109198(bad girls (1994))::tt0280486(bad company (1995))'
p908
sS'tt0112573'
p909
S'tt1595032(underneath (1995))::tt0230877(three musketeers, the (1993))::tt0779794(boys life (1995))::tt0109891(getting even with dad (1994))::tt3446062(babysitter, the (1995))'
p910
sS'tt0112572'
p911
S'tt3446062(babysitter, the (1995))::tt0230877(three musketeers, the (1993))::tt0113101(four rooms (1995))::tt0111127(serial mom (1994))::tt0114496(something to talk about (1995))'
p912
sS'tt0109813'
p913
S'tt3446062(babysitter, the (1995))::tt0111742(wolf (1994))::tt0230877(three musketeers, the (1993))::tt0109579(death and the maiden (1994))::tt0257315(my family (1995))'
p914
sS'tt0112579'
p915
S'tt0109198(bad girls (1994))::tt4103972(remains of the day, the (1993))::tt0109891(getting even with dad (1994))::tt0114496(something to talk about (1995))::tt0230877(three musketeers, the (1993))'
p916
sS'tt0110081'
p917
S"tt2993648(what's love got to do with it? (1993))::tt3446062(babysitter, the (1995))::tt0111054(safe passage (1994))::tt0779794(boys life (1995))::tt0115639(beautiful girls (1996))"
p918
sS'tt0113870'
p919
S'tt0109403(chasers (1994))::tt0113501(just cause (1995))::tt0109297(blink (1994))::tt0107756(orlando (1992))::tt0107554(menace ii society (1993))'
p920
sS'tt0114287'
p921
S'tt3446062(babysitter, the (1995))::tt0109891(getting even with dad (1994))::tt0114852(village of the damned (1995))::tt0230877(three musketeers, the (1993))::tt0111127(serial mom (1994))'
p922
sS'tt0108260'
p923
S'tt0109891(getting even with dad (1994))::tt0360307(richie rich (1994))::tt0110950(reality bites (1994))::tt0058450(umbrellas of cherbourg, the (parapluies de cherbourg, les) (1964))::tt1391741(walking dead, the (1995))'
p924
sS'tt0934676'
p925
S'tt0109891(getting even with dad (1994))::tt0111127(serial mom (1994))::tt0109813(flintstones, the (1994))::tt0779794(boys life (1995))::tt0360307(richie rich (1994))'
p926
sS'tt0110099'
p927
S'tt0109579(death and the maiden (1994))::tt4103972(remains of the day, the (1993))::tt0109198(bad girls (1994))::tt2167202(getaway, the (1994))::tt0380167(addiction, the (1995))'
p928
sS'tt0115907'
p929
S'tt0106220(addams family values (1993))::tt3446062(babysitter, the (1995))::tt0111127(serial mom (1994))::tt0113089(fluke (1995))::tt0106292(another stakeout (1993))'
p930
sS'tt0107362'
p931
S'tt0112883(don juan demarco (1995))::tt0114496(something to talk about (1995))::tt0112715(congo (1995))::tt0112744(crossing guard, the (1995))::tt0114296(roommates (1995))'
p932
sS'tt0110097'
p933
S'tt0230877(three musketeers, the (1993))::tt0111127(serial mom (1994))::tt0109891(getting even with dad (1994))::tt0779794(boys life (1995))::tt0109198(bad girls (1994))'
p934
sS'tt0380167'
p935
S'tt0114496(something to talk about (1995))::tt0109579(death and the maiden (1994))::tt0111127(serial mom (1994))::tt0230877(three musketeers, the (1993))::tt0050022(gumby: the movie (1995))'
p936
sS'tt0108149'
p937
S'tt0107426(little buddha (1993))::tt0059448(mirage (1995))::tt0107822(piano, the (1993))::tt0112651(celluloid closet, the (1995))::tt0113107(frankie starlight (1995))'
p938
sS'tt0110093'
p939
S'tt0112471(before sunrise (1995))::tt0257315(my family (1995))::tt0109642(dolores claiborne (1995))::tt0113101(four rooms (1995))::tt2665218(silence of the lambs, the (1991))'
p940
sS'tt0114508'
p941
S'tt3446062(babysitter, the (1995))::tt0112715(congo (1995))::tt0109579(death and the maiden (1994))::tt0280486(bad company (1995))::tt0114852(village of the damned (1995))'
p942
sS'tt0107413'
p943
S'tt0360307(richie rich (1994))::tt0114496(something to talk about (1995))::tt0230877(three musketeers, the (1993))::tt0380167(addiction, the (1995))::tt4103972(remains of the day, the (1993))'
p944
sS'tt0113277'
p945
S'tt0114496(something to talk about (1995))::tt0109579(death and the maiden (1994))::tt0360307(richie rich (1994))::tt0230877(three musketeers, the (1993))::tt1595032(underneath (1995))'
p946
sS'tt0107002'
p947
S'tt0230877(three musketeers, the (1993))::tt0108122(short cuts (1993))::tt4103972(remains of the day, the (1993))::tt0114496(something to talk about (1995))::tt0109198(bad girls (1994))'
p948
sS'tt0114857'
p949
S'tt0114496(something to talk about (1995))::tt0079758(prophecy, the (1995))::tt0230877(three musketeers, the (1993))::tt0111400(terminal velocity (1994))::tt1595032(underneath (1995))'
p950
sS'tt0107554'
p951
S'tt0230877(three musketeers, the (1993))::tt4103972(remains of the day, the (1993))::tt0779794(boys life (1995))::tt0109891(getting even with dad (1994))::tt0114496(something to talk about (1995))'
p952
sS'tt0114852'
p953
S'tt0230877(three musketeers, the (1993))::tt0109891(getting even with dad (1994))::tt0111127(serial mom (1994))::tt0109579(death and the maiden (1994))::tt0360307(richie rich (1994))'
p954
sS'tt0114916'
p955
S'tt0112471(before sunrise (1995))::tt0113097(forget paris (1995))::tt0111256(speechless (1994))::tt4103972(remains of the day, the (1993))::tt0110950(reality bites (1994))'
p956
sS'83'
p957
S'tt1595032(underneath (1995))::tt0230877(three musketeers, the (1993))::tt0109891(getting even with dad (1994))::tt0114478(smoke (1995))::tt0114496(something to talk about (1995))'
p958
sS'tt0112401'
p959
S'tt1391741(walking dead, the (1995))::tt0109579(death and the maiden (1994))::498 (mr. jones (1993))::tt0111742(wolf (1994))::tt1595032(underneath (1995))'
p960
sS'tt0114694'
p961
S'tt0110657(next karate kid, the (1994))::tt2167202(getaway, the (1994))::tt0111732(with honors (1994))::tt0109891(getting even with dad (1994))::tt0114214(quick and the dead, the (1995))'
p962
sS'tt0116731'
p963
S"62(mr. holland's opus (1995))::tt0230877(three musketeers, the (1993))::tt0109891(getting even with dad (1994))::tt0111488(trial by jury (1994))::tt3446062(babysitter, the (1995))"
p964
sS'tt0109635'
p965
S'tt0058450(umbrellas of cherbourg, the (parapluies de cherbourg, les) (1964))::tt0111488(trial by jury (1994))::tt0109891(getting even with dad (1994))::tt4103972(remains of the day, the (1993))::tt0230877(three musketeers, the (1993))'
p966
sS'tt0110671'
p967
S'tt0114496(something to talk about (1995))::tt0109370(canadian bacon (1995))::tt0111256(speechless (1994))::tt0109450(cobb (1994))::tt4103972(remains of the day, the (1993))'
p968
sS'tt0115759'
p969
S'tt0230877(three musketeers, the (1993))::tt1595032(underneath (1995))::tt0050022(gumby: the movie (1995))::tt3446062(babysitter, the (1995))::tt0114496(something to talk about (1995))'
p970
sS'tt0110892'
p971
S'tt0109579(death and the maiden (1994))::tt0230877(three musketeers, the (1993))::tt1391741(walking dead, the (1995))::tt0779794(boys life (1995))::tt1595032(underneath (1995))'
p972
sS'tt0021814'
p973
S'tt1595680(being human (1993))::tt0116367(from dusk till dawn (1996))::tt0118375(king of the hill (1993))::tt4103972(remains of the day, the (1993))::tt0113228(grumpier old men (1995))'
p974
sS'tt0110950'
p975
S'tt4103972(remains of the day, the (1993))::tt0111256(speechless (1994))::tt0115639(beautiful girls (1996))::tt0058450(umbrellas of cherbourg, the (parapluies de cherbourg, les) (1964))::tt0109891(getting even with dad (1994))'
p976
sS'tt0116126'
p977
S'tt0230877(three musketeers, the (1993))::tt3446062(babysitter, the (1995))::tt0113347(how to make an american quilt (1995))::tt0109891(getting even with dad (1994))::tt4103972(remains of the day, the (1993))'
p978
sS'tt0171804'
p979
S'tt4103972(remains of the day, the (1993))::tt0147800(hate (haine, la) (1995))::tt4947656(simple twist of fate, a (1994))::tt0113749(mallrats (1995))::tt0103639(aladdin (1992))'
p980
sS'488'
p981
S'tt0230877(three musketeers, the (1993))::tt0111256(speechless (1994))::tt0114496(something to talk about (1995))::tt0109198(bad girls (1994))::tt0117002(mary reilly (1996))'
p982
sS'tt0099348'
p983
S'tt1595032(underneath (1995))::tt0114496(something to talk about (1995))::tt0230877(three musketeers, the (1993))::tt3446062(babysitter, the (1995))::tt4103972(remains of the day, the (1993))'
p984
sS'tt0107315'
p985
S'tt4103972(remains of the day, the (1993))::tt0114296(roommates (1995))::tt3446062(babysitter, the (1995))::tt0779794(boys life (1995))::tt0058450(umbrellas of cherbourg, the (parapluies de cherbourg, les) (1964))'
p986
sS'tt0114825'
p987
S'tt0934676(little princess, a (1995))::tt0779794(boys life (1995))::tt0111742(wolf (1994))::tt0113089(fluke (1995))::tt1595680(being human (1993))'
p988
sS'tt0446059'
p989
S'tt0111301(street fighter (1994))::tt0380167(addiction, the (1995))::tt0113101(four rooms (1995))::tt0114885(waiting to exhale (1995))::tt0050022(gumby: the movie (1995))'
p990
sS'tt0109035'
p991
S"tt0106677(dazed and confused (1993))::62(mr. holland's opus (1995))::tt0230877(three musketeers, the (1993))::tt0114478(smoke (1995))::tt0360307(richie rich (1994))"
p992
sS'tt0116606'
p993
S'tt0360307(richie rich (1994))::tt0115639(beautiful girls (1996))::tt4103972(remains of the day, the (1993))::tt0113749(mallrats (1995))::tt0230877(three musketeers, the (1993))'
p994
sS'tt0109686'
p995
S'tt0113198(goofy movie, a (1995))::tt0113749(mallrats (1995))::tt0111256(speechless (1994))::tt3446062(babysitter, the (1995))::tt0103639(aladdin (1992))'
p996
s.