(dp0
S'U575'
p1
S'575'
p2
sS'U574'
p3
S'574'
p4
sS'199'
p5
S'U199'
p6
sS'U576'
p7
S'576'
p8
sS'U571'
p9
S'571'
p10
sS'U570'
p11
S'570'
p12
sS'U573'
p13
S'573'
p14
sS'U572'
p15
S'572'
p16
sS'U474'
p17
S'474'
p18
sS'U475'
p19
S'475'
p20
sS'U476'
p21
S'476'
p22
sS'U477'
p23
S'477'
p24
sS'U470'
p25
S'470'
p26
sS'U471'
p27
S'471'
p28
sS'U472'
p29
S'472'
p30
sS'U473'
p31
S'473'
p32
sS'U188'
p33
S'188'
p34
sS'U189'
p35
S'189'
p36
sS'U184'
p37
S'184'
p38
sS'U185'
p39
S'185'
p40
sS'U186'
p41
S'186'
p42
sS'U187'
p43
S'187'
p44
sS'U180'
p45
S'180'
p46
sS'U181'
p47
S'181'
p48
sS'U182'
p49
S'182'
p50
sS'U479'
p51
S'479'
p52
sS'198'
p53
S'U198'
p54
sS'167'
p55
S'U167'
p56
sS'344'
p57
S'U344'
p58
sS'345'
p59
S'U345'
p60
sS'U502'
p61
S'502'
p62
sS'U503'
p63
S'503'
p64
sS'340'
p65
S'U340'
p66
sS'U505'
p67
S'505'
p68
sS'U506'
p69
S'506'
p70
sS'U507'
p71
S'507'
p72
sS'U508'
p73
S'508'
p74
sS'U509'
p75
S'509'
p76
sS'504'
p77
S'U504'
p78
sS'348'
p79
S'U348'
p80
sS'349'
p81
S'U349'
p82
sS'U366'
p83
S'366'
p84
sS'U401'
p85
S'401'
p86
sS'U579'
p87
S'579'
p88
sS'6'
p89
S'U6'
p90
sS'U578'
p91
S'578'
p92
sS'618'
p93
S'U618'
p94
sS'478'
p95
S'U478'
p96
sS'661'
p97
S'U661'
p98
sS'129'
p99
S'U129'
p100
sS'606'
p101
S'U606'
p102
sS'U400'
p103
S'400'
p104
sS'U631'
p105
S'631'
p106
sS'619'
p107
S'U619'
p108
sS'U377'
p109
S'377'
p110
sS'U420'
p111
S'420'
p112
sS'U375'
p113
S'375'
p114
sS'U374'
p115
S'374'
p116
sS'U373'
p117
S'373'
p118
sS'U372'
p119
S'372'
p120
sS'298'
p121
S'U298'
p122
sS'299'
p123
S'U299'
p124
sS'148'
p125
S'U148'
p126
sS'297'
p127
S'U297'
p128
sS'294'
p129
S'U294'
p130
sS'295'
p131
S'U295'
p132
sS'292'
p133
S'U292'
p134
sS'293'
p135
S'U293'
p136
sS'U379'
p137
S'379'
p138
sS'291'
p139
S'U291'
p140
sS'591'
p141
S'U591'
p142
sS'590'
p143
S'U590'
p144
sS'593'
p145
S'U593'
p146
sS'592'
p147
S'U592'
p148
sS'595'
p149
S'U595'
p150
sS'594'
p151
S'U594'
p152
sS'597'
p153
S'U597'
p154
sS'596'
p155
S'U596'
p156
sS'195'
p157
S'U195'
p158
sS'598'
p159
S'U598'
p160
sS'629'
p161
S'U629'
p162
sS'196'
p163
S'U196'
p164
sS'191'
p165
S'U191'
p166
sS'190'
p167
S'U190'
p168
sS'193'
p169
S'U193'
p170
sS'192'
p171
S'U192'
p172
sS'U79'
p173
S'79'
p174
sS'U78'
p175
S'78'
p176
sS'272'
p177
S'U272'
p178
sS'273'
p179
S'U273'
p180
sS'274'
p181
S'U274'
p182
sS'275'
p183
S'U275'
p184
sS'276'
p185
S'U276'
p186
sS'277'
p187
S'U277'
p188
sS'194'
p189
S'U194'
p190
sS'279'
p191
S'U279'
p192
sS'U73'
p193
S'73'
p194
sS'U72'
p195
S'72'
p196
sS'U75'
p197
S'75'
p198
sS'U74'
p199
S'74'
p200
sS'U77'
p201
S'77'
p202
sS'U76'
p203
S'76'
p204
sS'497'
p205
S'U497'
p206
sS'U538'
p207
S'538'
p208
sS'524'
p209
S'U524'
p210
sS'525'
p211
S'U525'
p212
sS'526'
p213
S'U526'
p214
sS'527'
p215
S'U527'
p216
sS'520'
p217
S'U520'
p218
sS'521'
p219
S'U521'
p220
sS'522'
p221
S'U522'
p222
sS'523'
p223
S'U523'
p224
sS'599'
p225
S'U599'
p226
sS'U183'
p227
S'183'
p228
sS'528'
p229
S'U528'
p230
sS'529'
p231
S'U529'
p232
sS'449'
p233
S'U449'
p234
sS'448'
p235
S'U448'
p236
sS'U566'
p237
S'566'
p238
sS'U398'
p239
S'398'
p240
sS'U238'
p241
S'238'
p242
sS'442'
p243
S'U442'
p244
sS'441'
p245
S'U441'
p246
sS'440'
p247
S'U440'
p248
sS'447'
p249
S'U447'
p250
sS'446'
p251
S'U446'
p252
sS'445'
p253
S'U445'
p254
sS'U541'
p255
S'541'
p256
sS'108'
p257
S'U108'
p258
sS'109'
p259
S'U109'
p260
sS'U542'
p261
S'542'
p262
sS'U439'
p263
S'439'
p264
sS'102'
p265
S'U102'
p266
sS'103'
p267
S'U103'
p268
sS'100'
p269
S'U100'
p270
sS'307'
p271
S'U307'
p272
sS'106'
p273
S'U106'
p274
sS'U133'
p275
S'133'
p276
sS'104'
p277
S'U104'
p278
sS'105'
p279
S'U105'
p280
sS'U658'
p281
S'658'
p282
sS'U659'
p283
S'659'
p284
sS'39'
p285
S'U39'
p286
sS'38'
p287
S'U38'
p288
sS'U650'
p289
S'650'
p290
sS'32'
p291
S'U32'
p292
sS'U652'
p293
S'652'
p294
sS'30'
p295
S'U30'
p296
sS'37'
p297
S'U37'
p298
sS'U655'
p299
S'655'
p300
sS'35'
p301
S'U35'
p302
sS'34'
p303
S'U34'
p304
sS'641'
p305
S'U641'
p306
sS'640'
p307
S'U640'
p308
sS'643'
p309
S'U643'
p310
sS'246'
p311
S'U246'
p312
sS'645'
p313
S'U645'
p314
sS'644'
p315
S'U644'
p316
sS'647'
p317
S'U647'
p318
sS'439'
p319
S'U439'
p320
sS'649'
p321
S'U649'
p322
sS'437'
p323
S'U437'
p324
sS'434'
p325
S'U434'
p326
sS'435'
p327
S'U435'
p328
sS'432'
p329
S'U432'
p330
sS'433'
p331
S'U433'
p332
sS'430'
p333
S'U430'
p334
sS'431'
p335
S'U431'
p336
sS'U539'
p337
S'539'
p338
sS'347'
p339
S'U347'
p340
sS'339'
p341
S'U339'
p342
sS'338'
p343
S'U338'
p344
sS'U531'
p345
S'531'
p346
sS'U530'
p347
S'530'
p348
sS'U533'
p349
S'533'
p350
sS'336'
p351
S'U336'
p352
sS'U535'
p353
S'535'
p354
sS'U534'
p355
S'534'
p356
sS'333'
p357
S'U333'
p358
sS'U536'
p359
S'536'
p360
sS'U445'
p361
S'445'
p362
sS'317'
p363
S'U317'
p364
sS'U612'
p365
S'612'
p366
sS'U500'
p367
S'500'
p368
sS'U281'
p369
S'281'
p370
sS'U501'
p371
S'501'
p372
sS'U129'
p373
S'129'
p374
sS'346'
p375
S'U346'
p376
sS'U97'
p377
S'97'
p378
sS'U255'
p379
S'255'
p380
sS'U256'
p381
S'256'
p382
sS'U94'
p383
S'94'
p384
sS'U93'
p385
S'93'
p386
sS'U92'
p387
S'92'
p388
sS'U252'
p389
S'252'
p390
sS'U253'
p391
S'253'
p392
sS'U157'
p393
S'157'
p394
sS'U624'
p395
S'624'
p396
sS'U627'
p397
S'627'
p398
sS'U154'
p399
S'154'
p400
sS'U621'
p401
S'621'
p402
sS'U152'
p403
S'152'
p404
sS'U99'
p405
S'99'
p406
sS'U150'
p407
S'150'
p408
sS'U127'
p409
S'127'
p410
sS'U444'
p411
S'444'
p412
sS'U447'
p413
S'447'
p414
sS'U429'
p415
S'429'
p416
sS'U328'
p417
S'328'
p418
sS'U440'
p419
S'440'
p420
sS'U443'
p421
S'443'
p422
sS'U442'
p423
S'442'
p424
sS'U324'
p425
S'324'
p426
sS'U325'
p427
S'325'
p428
sS'U326'
p429
S'326'
p430
sS'U327'
p431
S'327'
p432
sS'U449'
p433
S'449'
p434
sS'U448'
p435
S'448'
p436
sS'U322'
p437
S'322'
p438
sS'U323'
p439
S'323'
p440
sS'99'
p441
S'U99'
p442
sS'98'
p443
S'U98'
p444
sS'U289'
p445
S'289'
p446
sS'91'
p447
S'U91'
p448
sS'90'
p449
S'U90'
p450
sS'93'
p451
S'U93'
p452
sS'92'
p453
S'U92'
p454
sS'95'
p455
S'U95'
p456
sS'94'
p457
S'U94'
p458
sS'97'
p459
S'U97'
p460
sS'96'
p461
S'U96'
p462
sS'651'
p463
S'U651'
p464
sS'U446'
p465
S'446'
p466
sS'U512'
p467
S'512'
p468
sS'U430'
p469
S'430'
p470
sS'U431'
p471
S'431'
p472
sS'U432'
p473
S'432'
p474
sS'U433'
p475
S'433'
p476
sS'U434'
p477
S'434'
p478
sS'U435'
p479
S'435'
p480
sS'U436'
p481
S'436'
p482
sS'U437'
p483
S'437'
p484
sS'U438'
p485
S'438'
p486
sS'343'
p487
S'U343'
p488
sS'U5'
p489
S'5'
p490
sS'559'
p491
S'U559'
p492
sS'558'
p493
S'U558'
p494
sS'555'
p495
S'U555'
p496
sS'554'
p497
S'U554'
p498
sS'557'
p499
S'U557'
p500
sS'556'
p501
S'U556'
p502
sS'551'
p503
S'U551'
p504
sS'550'
p505
S'U550'
p506
sS'553'
p507
S'U553'
p508
sS'552'
p509
S'U552'
p510
sS'583'
p511
S'U583'
p512
sS'197'
p513
S'U197'
p514
sS'238'
p515
S'U238'
p516
sS'239'
p517
S'U239'
p518
sS'U661'
p519
S'661'
p520
sS'234'
p521
S'U234'
p522
sS'235'
p523
S'U235'
p524
sS'236'
p525
S'U236'
p526
sS'237'
p527
S'U237'
p528
sS'378'
p529
S'U378'
p530
sS'231'
p531
S'U231'
p532
sS'232'
p533
S'U232'
p534
sS'233'
p535
S'U233'
p536
sS'U162'
p537
S'162'
p538
sS'U85'
p539
S'85'
p540
sS'230'
p541
S'U230'
p542
sS'228'
p543
S'U228'
p544
sS'U160'
p545
S'160'
p546
sS'1'
p547
S'U1'
p548
sS'U161'
p549
S'161'
p550
sS'U123'
p551
S'123'
p552
sS'U166'
p553
S'166'
p554
sS'155'
p555
S'U155'
p556
sS'U274'
p557
S'274'
p558
sS'U167'
p559
S'167'
p560
sS'146'
p561
S'U146'
p562
sS'367'
p563
S'U367'
p564
sS'144'
p565
S'U144'
p566
sS'U275'
p567
S'275'
p568
sS'142'
p569
S'U142'
p570
sS'U82'
p571
S'82'
p572
sS'140'
p573
S'U140'
p574
sS'141'
p575
S'U141'
p576
sS'612'
p577
S'U612'
p578
sS'613'
p579
S'U613'
p580
sS'563'
p581
S'U563'
p582
sS'U83'
p583
S'83'
p584
sS'616'
p585
S'U616'
p586
sS'617'
p587
S'U617'
p588
sS'614'
p589
S'U614'
p590
sS'149'
p591
S'U149'
p592
sS'U40'
p593
S'40'
p594
sS'U41'
p595
S'41'
p596
sS'U42'
p597
S'42'
p598
sS'U43'
p599
S'43'
p600
sS'U44'
p601
S'44'
p602
sS'443'
p603
S'U443'
p604
sS'U46'
p605
S'46'
p606
sS'U47'
p607
S'47'
p608
sS'U48'
p609
S'48'
p610
sS'U49'
p611
S'49'
p612
sS'635'
p613
S'U635'
p614
sS'512'
p615
S'U512'
p616
sS'U320'
p617
S'320'
p618
sS'623'
p619
S'U623'
p620
sS'U269'
p621
S'269'
p622
sS'U268'
p623
S'268'
p624
sS'622'
p625
S'U622'
p626
sS'U265'
p627
S'265'
p628
sS'U257'
p629
S'257'
p630
sS'U267'
p631
S'267'
p632
sS'U266'
p633
S'266'
p634
sS'U261'
p635
S'261'
p636
sS'U260'
p637
S'260'
p638
sS'U263'
p639
S'263'
p640
sS'U262'
p641
S'262'
p642
sS'133'
p643
S'U133'
p644
sS'132'
p645
S'U132'
p646
sS'131'
p647
S'U131'
p648
sS'130'
p649
S'U130'
p650
sS'137'
p651
S'U137'
p652
sS'136'
p653
S'U136'
p654
sS'135'
p655
S'U135'
p656
sS'134'
p657
S'U134'
p658
sS'494'
p659
S'U494'
p660
sS'495'
p661
S'U495'
p662
sS'496'
p663
S'U496'
p664
sS'138'
p665
S'U138'
p666
sS'490'
p667
S'U490'
p668
sS'491'
p669
S'U491'
p670
sS'492'
p671
S'U492'
p672
sS'493'
p673
S'U493'
p674
sS'U588'
p675
S'588'
p676
sS'U660'
p677
S'660'
p678
sS'U663'
p679
S'663'
p680
sS'U662'
p681
S'662'
p682
sS'20'
p683
S'U20'
p684
sS'U664'
p685
S'664'
p686
sS'U667'
p687
S'667'
p688
sS'23'
p689
S'U23'
p690
sS'U580'
p691
S'580'
p692
sS'U668'
p693
S'668'
p694
sS'U582'
p695
S'582'
p696
sS'U583'
p697
S'583'
p698
sS'U584'
p699
S'584'
p700
sS'U585'
p701
S'585'
p702
sS'U586'
p703
S'586'
p704
sS'U587'
p705
S'587'
p706
sS'407'
p707
S'U407'
p708
sS'406'
p709
S'U406'
p710
sS'405'
p711
S'U405'
p712
sS'404'
p713
S'U404'
p714
sS'403'
p715
S'U403'
p716
sS'402'
p717
S'U402'
p718
sS'401'
p719
S'U401'
p720
sS'400'
p721
S'U400'
p722
sS'U210'
p723
S'210'
p724
sS'U211'
p725
S'211'
p726
sS'U212'
p727
S'212'
p728
sS'U213'
p729
S'213'
p730
sS'U214'
p731
S'214'
p732
sS'U215'
p733
S'215'
p734
sS'409'
p735
S'U409'
p736
sS'408'
p737
S'U408'
p738
sS'U409'
p739
S'409'
p740
sS'U408'
p741
S'408'
p742
sS'U9'
p743
S'9'
p744
sS'453'
p745
S'U453'
p746
sS'U562'
p747
S'562'
p748
sS'U589'
p749
S'589'
p750
sS'U560'
p751
S'560'
p752
sS'U561'
p753
S'561'
p754
sS'U3'
p755
S'3'
p756
sS'U2'
p757
S'2'
p758
sS'U403'
p759
S'403'
p760
sS'U402'
p761
S'402'
p762
sS'U7'
p763
S'7'
p764
sS'U404'
p765
S'404'
p766
sS'U407'
p767
S'407'
p768
sS'U406'
p769
S'406'
p770
sS'158'
p771
S'U158'
p772
sS'U603'
p773
S'603'
p774
sS'183'
p775
S'U183'
p776
sS'U246'
p777
S'246'
p778
sS'U600'
p779
S'600'
p780
sS'265'
p781
S'U265'
p782
sS'U131'
p783
S'131'
p784
sS'U606'
p785
S'606'
p786
sS'379'
p787
S'U379'
p788
sS'U105'
p789
S'105'
p790
sS'U106'
p791
S'106'
p792
sS'U107'
p793
S'107'
p794
sS'U100'
p795
S'100'
p796
sS'U101'
p797
S'101'
p798
sS'U102'
p799
S'102'
p800
sS'U103'
p801
S'103'
p802
sS'371'
p803
S'U371'
p804
sS'370'
p805
S'U370'
p806
sS'373'
p807
S'U373'
p808
sS'372'
p809
S'U372'
p810
sS'U108'
p811
S'108'
p812
sS'U109'
p813
S'109'
p814
sS'377'
p815
S'U377'
p816
sS'376'
p817
S'U376'
p818
sS'U315'
p819
S'315'
p820
sS'U314'
p821
S'314'
p822
sS'U577'
p823
S'577'
p824
sS'U316'
p825
S'316'
p826
sS'U311'
p827
S'311'
p828
sS'U310'
p829
S'310'
p830
sS'U313'
p831
S'313'
p832
sS'U312'
p833
S'312'
p834
sS'U227'
p835
S'227'
p836
sS'U319'
p837
S'319'
p838
sS'U318'
p839
S'318'
p840
sS'393'
p841
S'U393'
p842
sS'392'
p843
S'U392'
p844
sS'88'
p845
S'U88'
p846
sS'390'
p847
S'U390'
p848
sS'397'
p849
S'U397'
p850
sS'396'
p851
S'U396'
p852
sS'395'
p853
S'U395'
p854
sS'394'
p855
S'U394'
p856
sS'82'
p857
S'U82'
p858
sS'83'
p859
S'U83'
p860
sS'80'
p861
S'U80'
p862
sS'81'
p863
S'U81'
p864
sS'86'
p865
S'U86'
p866
sS'87'
p867
S'U87'
p868
sS'84'
p869
S'U84'
p870
sS'85'
p871
S'U85'
p872
sS'604'
p873
S'U604'
p874
sS'U376'
p875
S'376'
p876
sS'U360'
p877
S'360'
p878
sS'U361'
p879
S'361'
p880
sS'U362'
p881
S'362'
p882
sS'U363'
p883
S'363'
p884
sS'U364'
p885
S'364'
p886
sS'U365'
p887
S'365'
p888
sg764
S'U7'
p889
sS'U367'
p890
S'367'
p891
sS'U368'
p892
S'368'
p893
sS'U369'
p894
S'369'
p895
sS'U12'
p896
S'12'
p897
sS'U469'
p898
S'469'
p899
sS'U158'
p900
S'158'
p901
sS'586'
p902
S'U586'
p903
sS'587'
p904
S'U587'
p905
sS'584'
p906
S'U584'
p907
sS'585'
p908
S'U585'
p909
sS'582'
p910
S'U582'
p911
sS'U371'
p912
S'371'
p913
sS'580'
p914
S'U580'
p915
sS'581'
p916
S'U581'
p917
sS'U370'
p918
S'370'
p919
sS'U250'
p920
S'250'
p921
sS'588'
p922
S'U588'
p923
sS'589'
p924
S'U589'
p925
sS'245'
p926
S'U245'
p927
sS'244'
p928
S'U244'
p929
sS'247'
p930
S'U247'
p931
sS'U151'
p932
S'151'
p933
sS'241'
p934
S'U241'
p935
sS'240'
p936
S'U240'
p937
sS'243'
p938
S'U243'
p939
sS'242'
p940
S'U242'
p941
sS'615'
p942
S'U615'
p943
sS'249'
p944
S'U249'
p945
sS'248'
p946
S'U248'
p947
sS'U628'
p948
S'628'
p949
sS'519'
p950
S'U519'
p951
sS'518'
p952
S'U518'
p953
sS'184'
p954
S'U184'
p955
sS'290'
p956
S'U290'
p957
sS'511'
p958
S'U511'
p959
sS'510'
p960
S'U510'
p961
sS'513'
p962
S'U513'
p963
sS'U378'
p964
S'378'
p965
sS'515'
p966
S'U515'
p967
sS'514'
p968
S'U514'
p969
sS'517'
p970
S'U517'
p971
sS'516'
p972
S'U516'
p973
sS'458'
p974
S'U458'
p975
sS'459'
p976
S'U459'
p977
sS'621'
p978
S'U621'
p979
sS'620'
p980
S'U620'
p981
sS'627'
p982
S'U627'
p983
sS'626'
p984
S'U626'
p985
sS'625'
p986
S'U625'
p987
sS'624'
p988
S'U624'
p989
sS'450'
p990
S'U450'
p991
sS'451'
p992
S'U451'
p993
sS'452'
p994
S'U452'
p995
sS'628'
p996
S'U628'
p997
sS'454'
p998
S'U454'
p999
sS'455'
p1000
S'U455'
p1001
sS'456'
p1002
S'U456'
p1003
sS'457'
p1004
S'U457'
p1005
sS'318'
p1006
S'U318'
p1007
sS'179'
p1008
S'U179'
p1009
sS'178'
p1010
S'U178'
p1011
sS'177'
p1012
S'U177'
p1013
sS'176'
p1014
S'U176'
p1015
sS'175'
p1016
S'U175'
p1017
sS'174'
p1018
S'U174'
p1019
sS'173'
p1020
S'U173'
p1021
sS'172'
p1022
S'U172'
p1023
sS'171'
p1024
S'U171'
p1025
sS'170'
p1026
S'U170'
p1027
sS'656'
p1028
S'U656'
p1029
sS'U198'
p1030
S'198'
p1031
sS'U258'
p1032
S'258'
p1033
sS'U19'
p1034
S'19'
p1035
sS'U18'
p1036
S'18'
p1037
sS'U17'
p1038
S'17'
p1039
sS'U16'
p1040
S'16'
p1041
sS'U15'
p1042
S'15'
p1043
sS'U554'
p1044
S'554'
p1045
sS'U13'
p1046
S'13'
p1047
sS'180'
p1048
S'U180'
p1049
sS'U11'
p1050
S'11'
p1051
sS'U10'
p1052
S'10'
p1053
sS'182'
p1054
S'U182'
p1055
sS'U412'
p1056
S'412'
p1057
sS'654'
p1058
S'U654'
p1059
sS'655'
p1060
S'U655'
p1061
sS'652'
p1062
S'U652'
p1063
sS'187'
p1064
S'U187'
p1065
sS'650'
p1066
S'U650'
p1067
sS'185'
p1068
S'U185'
p1069
sS'U423'
p1070
S'423'
p1071
sS'188'
p1072
S'U188'
p1073
sS'189'
p1074
S'U189'
p1075
sS'311'
p1076
S'U311'
p1077
sS'658'
p1078
S'U658'
p1079
sS'653'
p1080
S'U653'
p1081
sS'U528'
p1082
S'528'
p1083
sS'U529'
p1084
S'529'
p1085
sS'U139'
p1086
S'139'
p1087
sS'U138'
p1088
S'138'
p1089
sS'U522'
p1090
S'522'
p1091
sS'U134'
p1092
S'134'
p1093
sS'U520'
p1094
S'520'
p1095
sS'U136'
p1096
S'136'
p1097
sS'U526'
p1098
S'526'
p1099
sS'U130'
p1100
S'130'
p1101
sS'U524'
p1102
S'524'
p1103
sS'U525'
p1104
S'525'
p1105
sS'315'
p1106
S'U315'
p1107
sS'U415'
p1108
S'415'
p1109
sS'11'
p1110
S'U11'
p1111
sS'270'
p1112
S'U270'
p1113
sS'13'
p1114
S'U13'
p1115
sS'12'
p1116
S'U12'
p1117
sS'15'
p1118
S'U15'
p1119
sS'14'
p1120
S'U14'
p1121
sS'17'
p1122
S'U17'
p1123
sS'271'
p1124
S'U271'
p1125
sS'19'
p1126
S'U19'
p1127
sS'18'
p1128
S'U18'
p1129
sS'354'
p1130
S'U354'
p1131
sS'U221'
p1132
S'221'
p1133
sS'U220'
p1134
S'220'
p1135
sS'U223'
p1136
S'223'
p1137
sS'U222'
p1138
S'222'
p1139
sS'U225'
p1140
S'225'
p1141
sS'U224'
p1142
S'224'
p1143
sS'U638'
p1144
S'638'
p1145
sS'U639'
p1146
S'639'
p1147
sS'U636'
p1148
S'636'
p1149
sS'U637'
p1150
S'637'
p1151
sS'U142'
p1152
S'142'
p1153
sS'U381'
p1154
S'381'
p1155
sS'U144'
p1156
S'144'
p1157
sS'U633'
p1158
S'633'
p1159
sS'U630'
p1160
S'630'
p1161
sS'U147'
p1162
S'147'
p1163
sS'U456'
p1164
S'456'
p1165
sS'U457'
p1166
S'457'
p1167
sS'U454'
p1168
S'454'
p1169
sS'U455'
p1170
S'455'
p1171
sS'U452'
p1172
S'452'
p1173
sS'U453'
p1174
S'453'
p1175
sS'U450'
p1176
S'450'
p1177
sS'U451'
p1178
S'451'
p1179
sS'U351'
p1180
S'351'
p1181
sS'U350'
p1182
S'350'
p1183
sS'U353'
p1184
S'353'
p1185
sS'U352'
p1186
S'352'
p1187
sS'U355'
p1188
S'355'
p1189
sS'U354'
p1190
S'354'
p1191
sS'U458'
p1192
S'458'
p1193
sS'U459'
p1194
S'459'
p1195
sS'278'
p1196
S'U278'
p1197
sS'U653'
p1198
S'653'
p1199
sS'657'
p1200
S'U657'
p1201
sS'U517'
p1202
S'517'
p1203
sS'U45'
p1204
S'45'
p1205
sS'356'
p1206
S'U356'
p1207
sS'U196'
p1208
S'196'
p1209
sS'U230'
p1210
S'230'
p1211
sS'U515'
p1212
S'515'
p1213
sS'322'
p1214
S'U322'
p1215
sS'U135'
p1216
S'135'
p1217
sS'320'
p1218
S'U320'
p1219
sS'321'
p1220
S'U321'
p1221
sS'326'
p1222
S'U326'
p1223
sS'327'
p1224
S'U327'
p1225
sS'324'
p1226
S'U324'
p1227
sS'U523'
p1228
S'523'
p1229
sS'U513'
p1230
S'513'
p1231
sS'328'
p1232
S'U328'
p1233
sS'329'
p1234
S'U329'
p1235
sS'U137'
p1236
S'137'
p1237
sS'335'
p1238
S'U335'
p1239
sS'352'
p1240
S'U352'
p1241
sS'201'
p1242
S'U201'
p1243
sS'200'
p1244
S'U200'
p1245
sS'203'
p1246
S'U203'
p1247
sS'U521'
p1248
S'521'
p1249
sS'205'
p1250
S'U205'
p1251
sS'204'
p1252
S'U204'
p1253
sS'207'
p1254
S'U207'
p1255
sS'U480'
p1256
S'480'
p1257
sS'209'
p1258
S'U209'
p1259
sS'208'
p1260
S'U208'
p1261
sS'350'
p1262
S'U350'
p1263
sS'U527'
p1264
S'527'
p1265
sS'77'
p1266
S'U77'
p1267
sS'76'
p1268
S'U76'
p1269
sS'75'
p1270
S'U75'
p1271
sS'74'
p1272
S'U74'
p1273
sS'73'
p1274
S'U73'
p1275
sS'72'
p1276
S'U72'
p1277
sS'71'
p1278
S'U71'
p1279
sS'70'
p1280
S'U70'
p1281
sS'631'
p1282
S'U631'
p1283
sS'U132'
p1284
S'132'
p1285
sS'436'
p1286
S'U436'
p1287
sS'29'
p1288
S'U29'
p1289
sS'79'
p1290
S'U79'
p1291
sS'78'
p1292
S'U78'
p1293
sS'U91'
p1294
S'91'
p1295
sS'U194'
p1296
S'194'
p1297
sS'U486'
p1298
S'486'
p1299
sS'266'
p1300
S'U266'
p1301
sS'U348'
p1302
S'348'
p1303
sS'359'
p1304
S'U359'
p1305
sS'337'
p1306
S'U337'
p1307
sS'358'
p1308
S'U358'
p1309
sS'474'
p1310
S'U474'
p1311
sS'669'
p1312
S'U669'
p1313
sS'668'
p1314
S'U668'
p1315
sS'667'
p1316
S'U667'
p1317
sS'666'
p1318
S'U666'
p1319
sS'665'
p1320
S'U665'
p1321
sS'664'
p1322
S'U664'
p1323
sS'663'
p1324
S'U663'
p1325
sS'662'
p1326
S'U662'
p1327
sS'U349'
p1328
S'349'
p1329
sS'660'
p1330
S'U660'
p1331
sS'U53'
p1332
S'53'
p1333
sS'U52'
p1334
S'52'
p1335
sS'U51'
p1336
S'51'
p1337
sS'U50'
p1338
S'50'
p1339
sS'U57'
p1340
S'57'
p1341
sS'U56'
p1342
S'56'
p1343
sS'U55'
p1344
S'55'
p1345
sS'U54'
p1346
S'54'
p1347
sS'U59'
p1348
S'59'
p1349
sS'U58'
p1350
S'58'
p1351
sS'610'
p1352
S'U610'
p1353
sS'U546'
p1354
S'546'
p1355
sg756
S'U3'
p1356
sS'222'
p1357
S'U222'
p1358
sS'542'
p1359
S'U542'
p1360
sS'543'
p1361
S'U543'
p1362
sS'540'
p1363
S'U540'
p1364
sS'541'
p1365
S'U541'
p1366
sS'546'
p1367
S'U546'
p1368
sS'547'
p1369
S'U547'
p1370
sS'544'
p1371
S'U544'
p1372
sS'545'
p1373
S'U545'
p1374
sS'8'
p1375
S'U8'
p1376
sS'548'
p1377
S'U548'
p1378
sS'549'
p1379
S'U549'
p1380
sS'U228'
p1381
S'228'
p1382
sS'U343'
p1383
S'343'
p1384
sS'368'
p1385
S'U368'
p1386
sS'U278'
p1387
S'278'
p1388
sS'U279'
p1389
S'279'
p1390
sS'U276'
p1391
S'276'
p1392
sS'U277'
p1393
S'277'
p1394
sS'341'
p1395
S'U341'
p1396
sS'369'
p1397
S'U369'
p1398
sS'U272'
p1399
S'272'
p1400
sS'U273'
p1401
S'273'
p1402
sS'U270'
p1403
S'270'
p1404
sS'U271'
p1405
S'271'
p1406
sS'120'
p1407
S'U120'
p1408
sS'121'
p1409
S'U121'
p1410
sS'122'
p1411
S'U122'
p1412
sS'123'
p1413
S'U123'
p1414
sS'124'
p1415
S'U124'
p1416
sS'125'
p1417
S'U125'
p1418
sS'126'
p1419
S'U126'
p1420
sS'127'
p1421
S'U127'
p1422
sS'128'
p1423
S'U128'
p1424
sg758
S'U2'
p1425
sS'28'
p1426
S'U28'
p1427
sS'U540'
p1428
S'540'
p1429
sS'U71'
p1430
S'71'
p1431
sS'259'
p1432
S'U259'
p1433
sS'16'
p1434
S'U16'
p1435
sS'414'
p1436
S'U414'
p1437
sS'415'
p1438
S'U415'
p1439
sS'416'
p1440
S'U416'
p1441
sS'417'
p1442
S'U417'
p1443
sS'410'
p1444
S'U410'
p1445
sS'411'
p1446
S'U411'
p1447
sS'412'
p1448
S'U412'
p1449
sS'413'
p1450
S'U413'
p1451
sS'498'
p1452
S'U498'
p1453
sS'U622'
p1454
S'622'
p1455
sS'418'
p1456
S'U418'
p1457
sS'419'
p1458
S'U419'
p1459
sS'499'
p1460
S'U499'
p1461
sS'U553'
p1462
S'553'
p1463
sS'U552'
p1464
S'552'
p1465
sS'U418'
p1466
S'418'
p1467
sS'U419'
p1468
S'419'
p1469
sS'U557'
p1470
S'557'
p1471
sS'U556'
p1472
S'556'
p1473
sS'U555'
p1474
S'555'
p1475
sS'U307'
p1476
S'307'
p1477
sS'313'
p1478
S'U313'
p1479
sS'312'
p1480
S'U312'
p1481
sS'U559'
p1482
S'559'
p1483
sS'310'
p1484
S'U310'
p1485
sS'U416'
p1486
S'416'
p1487
sS'U417'
p1488
S'417'
p1489
sS'U414'
p1490
S'414'
p1491
sS'314'
p1492
S'U314'
p1493
sS'332'
p1494
S'U332'
p1495
sS'139'
p1496
S'U139'
p1497
sS'U481'
p1498
S'481'
p1499
sS'U148'
p1500
S'148'
p1501
sS'U483'
p1502
S'483'
p1503
sS'U482'
p1504
S'482'
p1505
sS'U485'
p1506
S'485'
p1507
sS'U484'
p1508
S'484'
p1509
sS'U487'
p1510
S'487'
p1511
sS'U149'
p1512
S'149'
p1513
sS'U489'
p1514
S'489'
p1515
sS'U488'
p1516
S'488'
p1517
sS'U301'
p1518
S'301'
p1519
sS'U467'
p1520
S'467'
p1521
sS'U171'
p1522
S'171'
p1523
sS'U170'
p1524
S'170'
p1525
sS'U173'
p1526
S'173'
p1527
sS'U172'
p1528
S'172'
p1529
sS'U175'
p1530
S'175'
p1531
sS'U174'
p1532
S'174'
p1533
sS'U177'
p1534
S'177'
p1535
sS'U176'
p1536
S'176'
p1537
sS'366'
p1538
S'U366'
p1539
sS'U178'
p1540
S'178'
p1541
sS'364'
p1542
S'U364'
p1543
sS'365'
p1544
S'U365'
p1545
sS'362'
p1546
S'U362'
p1547
sS'363'
p1548
S'U363'
p1549
sS'360'
p1550
S'U360'
p1551
sS'361'
p1552
S'U361'
p1553
sS'U306'
p1554
S'306'
p1555
sS'24'
p1556
S'U24'
p1557
sS'U304'
p1558
S'304'
p1559
sS'U305'
p1560
S'305'
p1561
sS'U302'
p1562
S'302'
p1563
sS'U303'
p1564
S'303'
p1565
sS'U300'
p1566
S'300'
p1567
sS'25'
p1568
S'U25'
p1569
sS'27'
p1570
S'U27'
p1571
sS'U226'
p1572
S'226'
p1573
sS'26'
p1574
S'U26'
p1575
sS'U308'
p1576
S'308'
p1577
sS'U309'
p1578
S'309'
p1579
sS'380'
p1580
S'U380'
p1581
sS'U140'
p1582
S'140'
p1583
sS'382'
p1584
S'U382'
p1585
sS'383'
p1586
S'U383'
p1587
sS'384'
p1588
S'U384'
p1589
sS'385'
p1590
S'U385'
p1591
sS'key'
p1592
S'value'
p1593
sS'387'
p1594
S'U387'
p1595
sS'388'
p1596
S'U388'
p1597
sS'389'
p1598
S'U389'
p1599
sS'444'
p1600
S'U444'
p1601
sS'U634'
p1602
S'634'
p1603
sS'21'
p1604
S'U21'
p1605
sS'342'
p1606
S'U342'
p1607
sS'U288'
p1608
S'288'
p1609
sS'U143'
p1610
S'143'
p1611
sS'U264'
p1612
S'264'
p1613
sS'22'
p1614
S'U22'
p1615
sS'381'
p1616
S'U381'
p1617
sS'U632'
p1618
S'632'
p1619
sS'U666'
p1620
S'666'
p1621
sS'U145'
p1622
S'145'
p1623
sS'U669'
p1624
S'669'
p1625
sS'U399'
p1626
S'399'
p1627
sS'U146'
p1628
S'146'
p1629
sS'U581'
p1630
S'581'
p1631
sS'U395'
p1632
S'395'
p1633
sS'U394'
p1634
S'394'
p1635
sS'U397'
p1636
S'397'
p1637
sS'U396'
p1638
S'396'
p1639
sS'U391'
p1640
S'391'
p1641
sS'U390'
p1642
S'390'
p1643
sS'U341'
p1644
S'341'
p1645
sS'U392'
p1646
S'392'
p1647
sS'605'
p1648
S'U605'
p1649
sS'579'
p1650
S'U579'
p1651
sS'578'
p1652
S'U578'
p1653
sS'386'
p1654
S'U386'
p1655
sS'U358'
p1656
S'358'
p1657
sS'573'
p1658
S'U573'
p1659
sS'572'
p1660
S'U572'
p1661
sS'571'
p1662
S'U571'
p1663
sS'570'
p1664
S'U570'
p1665
sS'577'
p1666
S'U577'
p1667
sS'153'
p1668
S'U153'
p1669
sS'575'
p1670
S'U575'
p1671
sS'574'
p1672
S'U574'
p1673
sS'60'
p1674
S'U60'
p1675
sS'61'
p1676
S'U61'
p1677
sS'62'
p1678
S'U62'
p1679
sS'63'
p1680
S'U63'
p1681
sS'64'
p1682
S'U64'
p1683
sS'65'
p1684
S'U65'
p1685
sS'66'
p1686
S'U66'
p1687
sS'67'
p1688
S'U67'
p1689
sS'252'
p1690
S'U252'
p1691
sS'253'
p1692
S'U253'
p1693
sS'250'
p1694
S'U250'
p1695
sS'251'
p1696
S'U251'
p1697
sS'256'
p1698
S'U256'
p1699
sS'257'
p1700
S'U257'
p1701
sS'254'
p1702
S'U254'
p1703
sS'255'
p1704
S'U255'
p1705
sS'U218'
p1706
S'218'
p1707
sS'U229'
p1708
S'229'
p1709
sS'101'
p1710
S'U101'
p1711
sS'157'
p1712
S'U157'
p1713
sS'U219'
p1714
S'219'
p1715
sS'156'
p1716
S'U156'
p1717
sS'U231'
p1718
S'231'
p1719
sS'107'
p1720
S'U107'
p1721
sS'116'
p1722
S'U116'
p1723
sS'351'
p1724
S'U351'
p1725
sS'508'
p1726
S'U508'
p1727
sS'509'
p1728
S'U509'
p1729
sS'506'
p1730
S'U506'
p1731
sS'507'
p1732
S'U507'
p1733
sS'U251'
p1734
S'251'
p1735
sS'505'
p1736
S'U505'
p1737
sS'502'
p1738
S'U502'
p1739
sS'503'
p1740
S'U503'
p1741
sS'500'
p1742
S'U500'
p1743
sS'501'
p1744
S'U501'
p1745
sS'630'
p1746
S'U630'
p1747
sS'659'
p1748
S'U659'
p1749
sS'632'
p1750
S'U632'
p1751
sS'633'
p1752
S'U633'
p1753
sS'469'
p1754
S'U469'
p1755
sS'468'
p1756
S'U468'
p1757
sS'636'
p1758
S'U636'
p1759
sS'637'
p1760
S'U637'
p1761
sS'465'
p1762
S'U465'
p1763
sS'639'
p1764
S'U639'
p1765
sS'467'
p1766
S'U467'
p1767
sS'466'
p1768
S'U466'
p1769
sS'461'
p1770
S'U461'
p1771
sS'460'
p1772
S'U460'
p1773
sS'463'
p1774
S'U463'
p1775
sS'462'
p1776
S'U462'
p1777
sS'168'
p1778
S'U168'
p1779
sS'169'
p1780
S'U169'
p1781
sS'164'
p1782
S'U164'
p1783
sS'165'
p1784
S'U165'
p1785
sS'166'
p1786
S'U166'
p1787
sS'U356'
p1788
S'356'
p1789
sS'160'
p1790
S'U160'
p1791
sS'161'
p1792
S'U161'
p1793
sS'162'
p1794
S'U162'
p1795
sS'163'
p1796
S'U163'
p1797
sS'U28'
p1798
S'28'
p1799
sS'U29'
p1800
S'29'
p1801
sS'U478'
p1802
S'478'
p1803
sS'U22'
p1804
S'22'
p1805
sS'U23'
p1806
S'23'
p1807
sS'U20'
p1808
S'20'
p1809
sS'U21'
p1810
S'21'
p1811
sS'U26'
p1812
S'26'
p1813
sS'U27'
p1814
S'27'
p1815
sS'U24'
p1816
S'24'
p1817
sS'U25'
p1818
S'25'
p1819
sS'33'
p1820
S'U33'
p1821
sS'U216'
p1822
S'216'
p1823
sS'U651'
p1824
S'651'
p1825
sS'U217'
p1826
S'217'
p1827
sS'31'
p1828
S'U31'
p1829
sS'U287'
p1830
S'287'
p1831
sS'U286'
p1832
S'286'
p1833
sS'U285'
p1834
S'285'
p1835
sS'U284'
p1836
S'284'
p1837
sS'U283'
p1838
S'283'
p1839
sS'U282'
p1840
S'282'
p1841
sS'U128'
p1842
S'128'
p1843
sS'U280'
p1844
S'280'
p1845
sS'U126'
p1846
S'126'
p1847
sS'U654'
p1848
S'654'
p1849
sS'U124'
p1850
S'124'
p1851
sS'U125'
p1852
S'125'
p1853
sS'U122'
p1854
S'122'
p1855
sS'U564'
p1856
S'564'
p1857
sS'U120'
p1858
S'120'
p1859
sS'U121'
p1860
S'121'
p1861
sS'U8'
p1862
g1375
sS'U656'
p1863
S'656'
p1864
sS'U141'
p1865
S'141'
p1866
sS'U657'
p1867
S'657'
p1868
sS'U563'
p1869
S'563'
p1870
sS'600'
p1871
S'U600'
p1872
sS'U551'
p1873
S'551'
p1874
sS'U629'
p1875
S'629'
p1876
sS'611'
p1877
S'U611'
p1878
sS'U38'
p1879
S'38'
p1880
sS'U232'
p1881
S'232'
p1882
sS'U233'
p1883
S'233'
p1884
sS'U609'
p1885
S'609'
p1886
sS'U608'
p1887
S'608'
p1888
sS'U236'
p1889
S'236'
p1890
sS'U237'
p1891
S'237'
p1892
sS'U234'
p1893
S'234'
p1894
sS'U235'
p1895
S'235'
p1896
sg744
S'U9'
p1897
sS'U602'
p1898
S'602'
p1899
sS'U601'
p1900
S'601'
p1901
sS'U239'
p1902
S'239'
p1903
sS'U607'
p1904
S'607'
p1905
sS'U1'
p1906
g547
sS'U605'
p1907
S'605'
p1908
sS'U604'
p1909
S'604'
p1910
sS'U463'
p1911
S'463'
p1912
sS'U462'
p1913
S'462'
p1914
sS'U461'
p1915
S'461'
p1916
sS'U460'
p1917
S'460'
p1918
sS'U550'
p1919
S'550'
p1920
sS'U466'
p1921
S'466'
p1922
sS'U465'
p1923
S'465'
p1924
sS'U464'
p1925
S'464'
p1926
sS'U342'
p1927
S'342'
p1928
sS'U405'
p1929
S'405'
p1930
sS'U340'
p1931
S'340'
p1932
sS'U468'
p1933
S'468'
p1934
sS'U346'
p1935
S'346'
p1936
sS'U347'
p1937
S'347'
p1938
sS'U344'
p1939
S'344'
p1940
sS'U345'
p1941
S'345'
p1942
sS'U193'
p1943
S'193'
p1944
sS'U192'
p1945
S'192'
p1946
sS'U191'
p1947
S'191'
p1948
sS'U190'
p1949
S'190'
p1950
sS'U197'
p1951
S'197'
p1952
sS'U568'
p1953
S'568'
p1954
sS'U195'
p1955
S'195'
p1956
sS'648'
p1957
S'U648'
p1958
sS'U199'
p1959
S'199'
p1960
sS'U4'
p1961
S'4'
p1962
sS'576'
p1963
S'U576'
p1964
sS'357'
p1965
S'U357'
p1966
sS'U516'
p1967
S'516'
p1968
sS'355'
p1969
S'U355'
p1970
sS'U514'
p1971
S'514'
p1972
sS'353'
p1973
S'U353'
p1974
sS'U393'
p1975
S'393'
p1976
sS'U511'
p1977
S'511'
p1978
sS'U510'
p1979
S'510'
p1980
sS'U413'
p1981
S'413'
p1982
sS'U519'
p1983
S'519'
p1984
sS'U518'
p1985
S'518'
p1986
sS'216'
p1987
S'U216'
p1988
sS'217'
p1989
S'U217'
p1990
sS'214'
p1991
S'U214'
p1992
sS'215'
p1993
S'U215'
p1994
sS'212'
p1995
S'U212'
p1996
sS'213'
p1997
S'U213'
p1998
sS'210'
p1999
S'U210'
p2000
sS'211'
p2001
S'U211'
p2002
sS'U422'
p2003
S'422'
p2004
sS'264'
p2005
S'U264'
p2006
sS'218'
p2007
S'U218'
p2008
sS'219'
p2009
S'U219'
p2010
sS'U635'
p2011
S'635'
p2012
sS'U410'
p2013
S'410'
p2014
sS'316'
p2015
S'U316'
p2016
sS'269'
p2017
S'U269'
p2018
sS'U118'
p2019
S'118'
p2020
sS'438'
p2021
S'U438'
p2022
sS'U359'
p2023
S'359'
p2024
sS'U65'
p2025
S'65'
p2026
sS'323'
p2027
S'U323'
p2028
sS'300'
p2029
S'U300'
p2030
sS'289'
p2031
S'U289'
p2032
sS'288'
p2033
S'U288'
p2034
sS'U6'
p2035
g89
sS'U411'
p2036
S'411'
p2037
sg1962
S'U4'
p2038
sS'334'
p2039
S'U334'
p2040
sS'281'
p2041
S'U281'
p2042
sS'280'
p2043
S'U280'
p2044
sS'283'
p2045
S'U283'
p2046
sS'282'
p2047
S'U282'
p2048
sS'285'
p2049
S'U285'
p2050
sS'284'
p2051
S'U284'
p2052
sS'287'
p2053
S'U287'
p2054
sS'286'
p2055
S'U286'
p2056
sS'U532'
p2057
S'532'
p2058
sS'642'
p2059
S'U642'
p2060
sS'331'
p2061
S'U331'
p2062
sS'301'
p2063
S'U301'
p2064
sS'325'
p2065
S'U325'
p2066
sS'330'
p2067
S'U330'
p2068
sS'263'
p2069
S'U263'
p2070
sS'262'
p2071
S'U262'
p2072
sS'261'
p2073
S'U261'
p2074
sS'260'
p2075
S'U260'
p2076
sS'267'
p2077
S'U267'
p2078
sS'U537'
p2079
S'537'
p2080
sS'U68'
p2081
S'68'
p2082
sS'U69'
p2083
S'69'
p2084
sS'U66'
p2085
S'66'
p2086
sS'U67'
p2087
S'67'
p2088
sS'U64'
p2089
S'64'
p2090
sS'268'
p2091
S'U268'
p2092
sS'U62'
p2093
S'62'
p2094
sS'U63'
p2095
S'63'
p2096
sS'U60'
p2097
S'60'
p2098
sS'U61'
p2099
S'61'
p2100
sS'59'
p2101
S'U59'
p2102
sS'58'
p2103
S'U58'
p2104
sS'646'
p2105
S'U646'
p2106
sS'55'
p2107
S'U55'
p2108
sS'54'
p2109
S'U54'
p2110
sS'57'
p2111
S'U57'
p2112
sS'56'
p2113
S'U56'
p2114
sS'51'
p2115
S'U51'
p2116
sS'50'
p2117
S'U50'
p2118
sS'53'
p2119
S'U53'
p2120
sS'52'
p2121
S'U52'
p2122
sS'537'
p2123
S'U537'
p2124
sS'536'
p2125
S'U536'
p2126
sS'535'
p2127
S'U535'
p2128
sS'534'
p2129
S'U534'
p2130
sS'533'
p2131
S'U533'
p2132
sS'532'
p2133
S'U532'
p2134
sS'531'
p2135
S'U531'
p2136
sS'530'
p2137
S'U530'
p2138
sS'U70'
p2139
S'70'
p2140
sS'539'
p2141
S'U539'
p2142
sS'538'
p2143
S'U538'
p2144
sS'U249'
p2145
S'249'
p2146
sS'U248'
p2147
S'248'
p2148
sS'U565'
p2149
S'565'
p2150
sS'303'
p2151
S'U303'
p2152
sS'U243'
p2153
S'243'
p2154
sS'U242'
p2155
S'242'
p2156
sS'U241'
p2157
S'241'
p2158
sS'U240'
p2159
S'240'
p2160
sS'U247'
p2161
S'247'
p2162
sS'U119'
p2163
S'119'
p2164
sS'U245'
p2165
S'245'
p2166
sS'U244'
p2167
S'244'
p2168
sS'115'
p2169
S'U115'
p2170
sS'68'
p2171
S'U68'
p2172
sS'117'
p2173
S'U117'
p2174
sS'36'
p2175
S'U36'
p2176
sS'111'
p2177
S'U111'
p2178
sS'110'
p2179
S'U110'
p2180
sS'113'
p2181
S'U113'
p2182
sS'69'
p2183
S'U69'
p2184
sS'119'
p2185
S'U119'
p2186
sS'118'
p2187
S'U118'
p2188
sS'U209'
p2189
S'209'
p2190
sS'U104'
p2191
S'104'
p2192
sS'U569'
p2193
S'569'
p2194
sS'U649'
p2195
S'649'
p2196
sS'U648'
p2197
S'648'
p2198
sS'U647'
p2199
S'647'
p2200
sS'U646'
p2201
S'646'
p2202
sS'U645'
p2203
S'645'
p2204
sS'U644'
p2205
S'644'
p2206
sS'U643'
p2207
S'643'
p2208
sS'U642'
p2209
S'642'
p2210
sS'U641'
p2211
S'641'
p2212
sS'U640'
p2213
S'640'
p2214
sS'429'
p2215
S'U429'
p2216
sS'428'
p2217
S'U428'
p2218
sS'U558'
p2219
S'558'
p2220
sS'U620'
p2221
S'620'
p2222
sS'U299'
p2223
S'299'
p2224
sS'421'
p2225
S'U421'
p2226
sS'420'
p2227
S'U420'
p2228
sS'423'
p2229
S'U423'
p2230
sS'422'
p2231
S'U422'
p2232
sS'425'
p2233
S'U425'
p2234
sS'424'
p2235
S'U424'
p2236
sS'427'
p2237
S'U427'
p2238
sS'426'
p2239
S'U426'
p2240
sS'308'
p2241
S'U308'
p2242
sS'309'
p2243
S'U309'
p2244
sS'U548'
p2245
S'548'
p2246
sS'U549'
p2247
S'549'
p2248
sS'U179'
p2249
S'179'
p2250
sS'U544'
p2251
S'544'
p2252
sS'U545'
p2253
S'545'
p2254
sS'302'
p2255
S'U302'
p2256
sS'U547'
p2257
S'547'
p2258
sS'304'
p2259
S'U304'
p2260
sS'305'
p2261
S'U305'
p2262
sS'306'
p2263
S'U306'
p2264
sS'U543'
p2265
S'543'
p2266
sS'181'
p2267
S'U181'
p2268
sS'U114'
p2269
S'114'
p2270
sS'U504'
p2271
S'504'
p2272
sS'U492'
p2273
S'492'
p2274
sS'U493'
p2275
S'493'
p2276
sS'U490'
p2277
S'490'
p2278
sS'U491'
p2279
S'491'
p2280
sS'U496'
p2281
S'496'
p2282
sS'U497'
p2283
S'497'
p2284
sS'U494'
p2285
S'494'
p2286
sS'U495'
p2287
S'495'
p2288
sS'375'
p2289
S'U375'
p2290
sS'U498'
p2291
S'498'
p2292
sS'U499'
p2293
S'499'
p2294
sS'374'
p2295
S'U374'
p2296
sS'U84'
p2297
S'84'
p2298
sS'U163'
p2299
S'163'
p2300
sS'U86'
p2301
S'86'
p2302
sS'U87'
p2303
S'87'
p2304
sS'U80'
p2305
S'80'
p2306
sS'U81'
p2307
S'81'
p2308
sS'U164'
p2309
S'164'
p2310
sS'U165'
p2311
S'165'
p2312
sS'U296'
p2313
S'296'
p2314
sS'U168'
p2315
S'168'
p2316
sS'U169'
p2317
S'169'
p2318
sS'U88'
p2319
S'88'
p2320
sS'U89'
p2321
S'89'
p2322
sS'U333'
p2323
S'333'
p2324
sS'U332'
p2325
S'332'
p2326
sS'U331'
p2327
S'331'
p2328
sS'U330'
p2329
S'330'
p2330
sS'U337'
p2331
S'337'
p2332
sS'U336'
p2333
S'336'
p2334
sS'U335'
p2335
S'335'
p2336
sS'U334'
p2337
S'334'
p2338
sS'296'
p2339
S'U296'
p2340
sS'U339'
p2341
S'339'
p2342
sS'U338'
p2343
S'338'
p2344
sS'U317'
p2345
S'317'
p2346
sS'634'
p2347
S'U634'
p2348
sS'258'
p2349
S'U258'
p2350
sS'147'
p2351
S'U147'
p2352
sS'202'
p2353
S'U202'
p2354
sS'U254'
p2355
S'254'
p2356
sS'U96'
p2357
S'96'
p2358
sS'U14'
p2359
S'14'
p2360
sS'U95'
p2361
S'95'
p2362
sS'145'
p2363
S'U145'
p2364
sS'U427'
p2365
S'427'
p2366
sS'U426'
p2367
S'426'
p2368
sS'U425'
p2369
S'425'
p2370
sS'U424'
p2371
S'424'
p2372
sS'U298'
p2373
S'298'
p2374
sS'U208'
p2375
S'208'
p2376
sS'U421'
p2377
S'421'
p2378
sS'U389'
p2379
S'389'
p2380
sS'U386'
p2381
S'386'
p2382
sS'U387'
p2383
S'387'
p2384
sS'U384'
p2385
S'384'
p2386
sS'U385'
p2387
S'385'
p2388
sS'U382'
p2389
S'382'
p2390
sS'U383'
p2391
S'383'
p2392
sS'U380'
p2393
S'380'
p2394
sS'U428'
p2395
S'428'
p2396
sS'568'
p2397
S'U568'
p2398
sS'569'
p2399
S'U569'
p2400
sS'U159'
p2401
S'159'
p2402
sS'560'
p2403
S'U560'
p2404
sS'561'
p2405
S'U561'
p2406
sS'562'
p2407
S'U562'
p2408
sS'U90'
p2409
S'90'
p2410
sS'564'
p2411
S'U564'
p2412
sS'565'
p2413
S'U565'
p2414
sS'566'
p2415
S'U566'
p2416
sS'567'
p2417
S'U567'
p2418
sS'U625'
p2419
S'625'
p2420
sS'U617'
p2421
S'617'
p2422
sS'229'
p2423
S'U229'
p2424
sS'U156'
p2425
S'156'
p2426
sS'227'
p2427
S'U227'
p2428
sS'226'
p2429
S'U226'
p2430
sS'225'
p2431
S'U225'
p2432
sS'224'
p2433
S'U224'
p2434
sS'223'
p2435
S'U223'
p2436
sS'U155'
p2437
S'155'
p2438
sS'221'
p2439
S'U221'
p2440
sS'220'
p2441
S'U220'
p2442
sS'U626'
p2443
S'626'
p2444
sS'U599'
p2445
S'599'
p2446
sS'114'
p2447
S'U114'
p2448
sS'186'
p2449
S'U186'
p2450
sS'U153'
p2451
S'153'
p2452
sS'143'
p2453
S'U143'
p2454
sS'U613'
p2455
S'613'
p2456
sS'391'
p2457
S'U391'
p2458
sS'U259'
p2459
S'259'
p2460
sS'89'
p2461
S'U89'
p2462
sS'U623'
p2463
S'623'
p2464
sS'U98'
p2465
S'98'
p2466
sS'151'
p2467
S'U151'
p2468
sS'150'
p2469
S'U150'
p2470
sS'607'
p2471
S'U607'
p2472
sS'152'
p2473
S'U152'
p2474
sS'601'
p2475
S'U601'
p2476
sS'154'
p2477
S'U154'
p2478
sS'603'
p2479
S'U603'
p2480
sS'602'
p2481
S'U602'
p2482
sS'159'
p2483
S'U159'
p2484
sS'U618'
p2485
S'618'
p2486
sS'112'
p2487
S'U112'
p2488
sS'609'
p2489
S'U609'
p2490
sS'608'
p2491
S'U608'
p2492
sS'U619'
p2493
S'619'
p2494
sS'U35'
p2495
S'35'
p2496
sS'U34'
p2497
S'34'
p2498
sS'U37'
p2499
S'37'
p2500
sS'U36'
p2501
S'36'
p2502
sS'U31'
p2503
S'31'
p2504
sS'U30'
p2505
S'30'
p2506
sS'U33'
p2507
S'33'
p2508
sS'U32'
p2509
S'32'
p2510
sS'U441'
p2511
S'441'
p2512
sS'U665'
p2513
S'665'
p2514
sS'U39'
p2515
S'39'
p2516
sS'399'
p2517
S'U399'
p2518
sS'U329'
p2519
S'329'
p2520
sS'206'
p2521
S'U206'
p2522
sS'398'
p2523
S'U398'
p2524
sS'48'
p2525
S'U48'
p2526
sS'49'
p2527
S'U49'
p2528
sS'46'
p2529
S'U46'
p2530
sS'47'
p2531
S'U47'
p2532
sS'44'
p2533
S'U44'
p2534
sS'45'
p2535
S'U45'
p2536
sS'42'
p2537
S'U42'
p2538
sS'43'
p2539
S'U43'
p2540
sS'40'
p2541
S'U40'
p2542
sS'41'
p2543
S'U41'
p2544
sS'638'
p2545
S'U638'
p2546
sg490
S'U5'
p2547
sS'464'
p2548
S'U464'
p2549
sS'10'
p2550
S'U10'
p2551
sS'U290'
p2552
S'290'
p2553
sS'U291'
p2554
S'291'
p2555
sS'U292'
p2556
S'292'
p2557
sS'U293'
p2558
S'293'
p2559
sS'U294'
p2560
S'294'
p2561
sS'U295'
p2562
S'295'
p2563
sS'U357'
p2564
S'357'
p2565
sS'U297'
p2566
S'297'
p2567
sS'U113'
p2568
S'113'
p2569
sS'U112'
p2570
S'112'
p2571
sS'U111'
p2572
S'111'
p2573
sS'U110'
p2574
S'110'
p2575
sS'U117'
p2576
S'117'
p2577
sS'U116'
p2578
S'116'
p2579
sS'U115'
p2580
S'115'
p2581
sS'U321'
p2582
S'321'
p2583
sS'U388'
p2584
S'388'
p2585
sS'489'
p2586
S'U489'
p2587
sS'488'
p2588
S'U488'
p2589
sS'487'
p2590
S'U487'
p2591
sS'486'
p2592
S'U486'
p2593
sS'485'
p2594
S'U485'
p2595
sS'484'
p2596
S'U484'
p2597
sS'483'
p2598
S'U483'
p2599
sS'482'
p2600
S'U482'
p2601
sS'481'
p2602
S'U481'
p2603
sS'480'
p2604
S'U480'
p2605
sS'U614'
p2606
S'614'
p2607
sS'U615'
p2608
S'615'
p2609
sS'U616'
p2610
S'616'
p2611
sS'U204'
p2612
S'204'
p2613
sS'U610'
p2614
S'610'
p2615
sS'U611'
p2616
S'611'
p2617
sS'319'
p2618
S'U319'
p2619
sS'U598'
p2620
S'598'
p2621
sS'U597'
p2622
S'597'
p2623
sS'U596'
p2624
S'596'
p2625
sS'U595'
p2626
S'595'
p2627
sS'U594'
p2628
S'594'
p2629
sS'U593'
p2630
S'593'
p2631
sS'U592'
p2632
S'592'
p2633
sS'U591'
p2634
S'591'
p2635
sS'U590'
p2636
S'590'
p2637
sS'472'
p2638
S'U472'
p2639
sS'473'
p2640
S'U473'
p2641
sS'470'
p2642
S'U470'
p2643
sS'471'
p2644
S'U471'
p2645
sS'476'
p2646
S'U476'
p2647
sS'477'
p2648
S'U477'
p2649
sS'U567'
p2650
S'567'
p2651
sS'475'
p2652
S'U475'
p2653
sS'U207'
p2654
S'207'
p2655
sS'U206'
p2656
S'206'
p2657
sS'U205'
p2658
S'205'
p2659
sS'479'
p2660
S'U479'
p2661
sS'U203'
p2662
S'203'
p2663
sS'U202'
p2664
S'202'
p2665
sS'U201'
p2666
S'201'
p2667
sS'U200'
p2668
S'200'
p2669
s.