(dp0
S'344'
p1
S'tt0120382::tt0083658::tt0082158::tt0117998::tt0114478::tt0955308::tt0090605::tt0119008::tt0101414::tt0126886'
p2
sS'345'
p3
S'tt0113189::tt0083658::tt0110478::tt0137494::tt0110912::tt0112697::tt0113161::tt0119008::tt0112384::tt0050083'
p4
sS'346'
p5
S'tt0109830::tt0112740::tt0114814::tt0110912::tt0101414::tt0113041::tt0112384::tt0110950::tt0113987::tt0113277'
p6
sS'347'
p7
S'tt0112384::tt0099348::tt0113161::tt0108399::tt0251413::tt0050083::tt0095016::tt0088763::tt0360480::tt0114746'
p8
sS'340'
p9
S'tt0109445::tt0113481::tt0108160::tt0110428::tt0063350::tt0844330::tt0088846::tt0110074::tt0113228::tt0115963'
p10
sS'341'
p11
S'tt0103639::tt0117998::tt0111282::tt0034583::tt0114746::tt0109830::tt0112461::tt0114508::tt0955308::tt0034928'
p12
sS'342'
p13
S'tt0112384::tt0114814::tt0095016::tt0083866::tt0110428::tt0106062::tt0137494::tt0108052::tt0106977::tt0119008'
p14
sS'343'
p15
S'tt0251413::tt0112384::tt0095016::tt0114279::tt0108399::tt0050083::tt0436364::tt0114576::tt0111161::tt0955308'
p16
sS'348'
p17
S'tt0111161::tt0113277::tt0113862::tt0844330::tt0113101::tt0034583::tt0112573::tt0108052::tt0114388::tt0113957'
p18
sS'349'
p19
S'tt0112740::tt0109445::tt0110428::tt0032138::tt0034928::tt0114508::::tt0113189::tt0844330::tt0053125::tt0111161'
p20
sS'595'
p21
S'tt0082971::tt0113277::tt0111257::tt0108399::tt0090605::tt0116483::tt0112346::tt0112792::tt0112851::tt0111495'
p22
sS'606'
p23
S'tt0114214::tt0099348::tt0112883::tt0082158::tt0101765::tt0112445::tt0109759::tt0047396::tt0118866::tt0105488'
p24
sS'594'
p25
S'tt0111161::tt0119008::tt0114478::tt0137494::tt0114746::tt0118866::tt0117666::tt0061418::tt0106339::tt0119731'
p26
sS'619'
p27
S'tt0113189::tt2665218::tt0112573::tt0116483::tt0113497::tt0112851::tt0095016::tt0111161::tt0113749::tt0105236'
p28
sS'298'
p29
S'tt0112384::tt0114814::tt0095016::tt2665218::tt0110367::tt0116282::tt0047437::tt0106062::tt0111149::tt0112715'
p30
sS'299'
p31
S'tt0112384::tt0112697::tt0137494::tt0111161::tt0050083::tt0090605::tt0119008::tt0108399::tt2665218::tt0112857'
p32
sS'296'
p33
S'tt0113189::tt0844330::tt0034928::tt0111282::tt0113481::tt0110367::tt0113243::tt0112792::tt0111161::tt0095016'
p34
sS'297'
p35
S'tt0112573::tt0112384::tt0095016::tt0111161::tt0251413::tt0113986::tt0099785::tt0071607::tt0108052::tt0117008'
p36
sS'294'
p37
S'tt0119008::tt0137494::tt0114478::tt0117666::tt0106339::tt0118866::tt0112445::tt0107478::tt0094074::tt0061418'
p38
sS'295'
p39
S'tt0090605::tt0082971::tt0110632::tt0119008::tt0118866::tt0117723::tt0119731::tt1216496::tt0298148::tt0114478'
p40
sS'292'
p41
S'tt0116282::tt0119008::tt0090605::tt0114478::tt0118866::tt0298148::tt0061418::tt0082158::tt0089822::tt1216496'
p42
sS'293'
p43
S'tt0112697::tt0112857::tt0110478::tt0067992::tt0054215::tt0137494::tt0117500::tt0053125::tt0360480::tt0113497'
p44
sS'290'
p45
S'tt0114746::tt0082971::tt0090605::tt0113862::tt0251413::tt0110632::tt0111161::tt0114279::tt0113819::tt0034583'
p46
sS'291'
p47
S'tt2665218::tt0116282::tt0113228::tt0113749::tt0090605::tt0110912::tt0021814::tt0105236::tt0114508::tt0052357'
p48
sS'591'
p49
S'tt0099348::tt0108160::tt0112883::tt0063350::tt0114214::tt0109759::tt0106062::tt0112740::tt0088846::tt0114478'
p50
sS'590'
p51
S'tt0112573::tt2665218::tt0111161::tt0095016::tt0095016::tt0112384::tt0105236::tt0251413::tt0094517::tt0099785'
p52
sS'593'
p53
S'tt0113862::tt0110912::tt0113819::tt0107290::tt0095016::tt0109707::tt0110057::tt2665218::tt0112442::tt0112722'
p54
sS'592'
p55
S'tt0110632::tt0095016::tt0114746::tt0082971::tt0090605::tt0251413::tt0120694::tt0251413::tt0050083::tt0114814'
p56
sS'199'
p57
S'tt0047396::tt0251413::tt0112384::tt0108052::tt0095016::tt0114746::tt0137494::tt0251413::tt0111161::tt0119008'
p58
sS'198'
p59
S'tt0113189::tt0099348::tt0137494::tt0110912::tt0117666::tt0109759::tt0114478::tt0360480::tt1245763::tt0101765'
p60
sS'597'
p61
S'tt0116282::tt0119008::tt0114478::tt0118866::tt0298148::tt0061418::tt0082158::tt0089822::tt1216496::tt0195945'
p62
sS'596'
p63
S'tt2665218::tt0112851::tt0116282::tt0095016::tt0113497::tt0099685::tt0119008::tt0107822::tt0112445::tt0095016'
p64
sS'195'
p65
S'tt0088846::tt0109445::tt0095016::tt0117247::tt0114279::tt0360307::tt0063350::tt0114478::tt0110443::tt0045152'
p66
sS'194'
p67
S'tt0090605::tt0107616::tt0110632::tt0110413::tt0111161::tt0097576::tt0082971::tt0092005::tt0114508::tt0230877'
p68
sS'197'
p69
S'tt0113041::tt0113862::tt0110638::tt0114214::tt0053125::tt0114388::tt0112442::tt0094517::tt0113189::tt0109348'
p70
sS'196'
p71
S'tt0109830::tt0114746::tt0110632::tt0251413::tt0090605::tt0112384::tt0116483::tt0092005::tt0082971::tt0112442'
p72
sS'191'
p73
S'tt0047396::tt0066921::tt0110057::tt0251413::tt0251413::tt0099348::tt0114214::tt0109831::tt0114746::tt0109830'
p74
sS'190'
p75
S'tt0360480::tt0111161::tt0115963::tt0112883::tt0108160::tt0063350::tt0113862::tt0042192::tt0053125::tt0109759'
p76
sS'193'
p77
S'tt0112573::tt0110632::tt0107614::tt0112857::tt0034583::tt0113986::tt0113862::tt0137494::tt0092005::tt0109771'
p78
sS'192'
p79
S'tt2665218::tt0114709::tt0114814::tt0116282::tt0112851::tt0114746::tt0110622::tt0109686::tt0112579::tt0113277'
p80
sS'270'
p81
S'tt0119008::tt0137494::tt0114478::tt0105488::tt0117666::tt0106339::tt0118866::tt0112445::tt0107478::tt0094074'
p82
sS'271'
p83
S'tt0109830::tt0053125::tt0110997::tt0114214::tt0113041::tt0095776::tt0251413::tt0110074::tt0111797::tt0114279'
p84
sS'272'
p85
S'tt0112431::tt0117500::tt0090605::tt2665218::tt0092005::tt0113862::tt0110099::tt0039628::tt0112697::tt0109045'
p86
sS'273'
p87
S'tt0215465::tt0113419::tt0113749::tt0116483::tt0112851::tt0112740::tt0090605::tt0109686::tt0112579::tt0114694'
p88
sS'274'
p89
S'tt0113862::tt0113041::tt0114279::tt0107616::tt0101414::tt0090605::tt0113189::tt0116282::tt0251413::tt0112384'
p90
sS'275'
p91
S'tt0096895::tt0108550::tt0116282::tt0814314::tt0110932::tt0114814::tt0053125::tt0110057::tt0083866::tt0353496'
p92
sS'276'
p93
S'tt0114388::tt0117500::tt0251413::tt0114898::tt1229238::tt0110622::tt0110367::tt1369497::tt0083658::tt0114746'
p94
sS'277'
p95
S'tt0103639::tt0111282::tt0112792::tt0112461::tt0034928::tt0112697::tt0113277::tt0116282::tt0844330::tt0114508'
p96
sS'278'
p97
S'tt0113497::tt0110074::tt0095016::tt0116483::tt0032138::tt0137494::tt0114576::tt0113481::tt0063350::tt0112819'
p98
sS'279'
p99
S'tt0095016::tt0251413::tt0099785::tt0108052::tt0109830::tt0111161::tt2271217::tt0114214::tt0105236::tt0047396'
p100
sS'524'
p101
S'tt0107616::tt0099348::tt0082971::tt1369497::tt0114388::tt0111161::tt0090605::tt0116483::tt0053125::tt0042192'
p102
sS'525'
p103
S'tt0109445::tt0251413::tt0108399::tt0103064::tt0111161::tt0110074::tt0113819::tt0110598::tt0052357::tt0095776'
p104
sS'526'
p105
S'tt2665218::tt0112431::tt0113189::tt0113862::tt0110478::tt0090605::tt0109045::tt0117998::tt0097576::tt0215465'
p106
sS'527'
p107
S'tt0095016::tt0045152::tt0112384::tt0053125::tt0116191::tt0088846::tt0112883::tt0114367::tt0114214::tt0113041'
p108
sS'520'
p109
S'tt0066921::tt0114214::tt0251413::tt0119008::tt0108052::tt0111503::tt0047396::tt0117666::tt0071607::tt0116213'
p110
sS'521'
p111
S'tt0112384::tt0095016::tt0114279::tt0050083::tt0090605::tt0110632::tt0105236::tt0073486::tt0082971::tt0111149'
p112
sS'522'
p113
S'tt0119008::tt0114709::tt0109592::tt0112445::tt0105488::tt0137494::tt0118866::tt0116282::tt0114478::tt0082158'
p114
sS'523'
p115
S'tt0109045::tt0116282::tt0113189::tt0111282::tt0112857::tt0353496::tt0844330::tt0113540::tt0109508::tt0095016'
p116
sS'599'
p117
S'tt0114814::tt0114709::tt5545586::tt0053125::tt0251413::tt0112851::tt0110322::tt0099653::tt0082846::tt0109348'
p118
sS'528'
p119
S'tt0114709::tt0814314::tt0095016::tt5545586::tt0119008::tt0071607::tt0137494::tt0082846::tt0113627::tt0105488'
p120
sS'529'
p121
S'tt0090605::tt0119008::tt0114478::tt0137494::tt0118866::tt0117666::tt0061418::tt0106339::tt0119731::tt0298148'
p122
sS'449'
p123
S'tt0251413::tt0112384::tt0113862::tt0114279::tt0107616::tt0090605::tt0082971::tt0050083::tt0110632::tt0114694'
p124
sS'448'
p125
S'tt2665218::tt0113419::tt0113749::tt0116282::tt0114508::tt0109686::tt0090605::tt0955308::tt0230877::tt0110632'
p126
sS'443'
p127
S'tt0112384::tt0110632::tt0114814::tt0955308::tt0090605::tt2271217::tt0073486::tt0111149::tt0120694::tt0114508'
p128
sS'442'
p129
S'tt0090605::tt0082971::tt0119008::tt0118866::tt0119731::tt1216496::tt0298148::tt0114478::tt0089822::tt0061418'
p130
sS'441'
p131
S'tt0117247::tt0110443::tt0360307::tt0046250::tt0073486::tt0088846::tt0119008::tt0082971::tt0137494::tt0045152'
p132
sS'440'
p133
S'tt2665218::tt0053125::tt1212129::tt0116483::tt0116282::tt0113419::tt0113117::tt0090605::::tt0215465::tt0117951'
p134
sS'447'
p135
S'tt2665218::tt0112851::tt0116282::tt0095016::tt0099685::tt0119008::tt0107822::tt0112445::tt0095016::tt0082158'
p136
sS'446'
p137
S'tt0112857::tt0114709::tt0101414::tt0353496::tt0113101::tt0109045::tt0113189::tt0112697::tt0112431::tt0106220'
p138
sS'445'
p139
S'tt0113749::tt0112579::tt0112851::tt0106598::tt0116483::tt0114814::tt0113189::tt2747352::tt0107614::tt0112883'
p140
sS'444'
p141
S'tt0112384::tt0114814::tt0095016::tt0116282::tt0110932::tt0045152::tt0109830::tt0083866::tt0106062::tt0110428'
p142
sS'108'
p143
S'tt0113228::tt0095016::tt0955308::tt0112384::tt0251413::tt0021814::tt0114279::tt0113041::tt0108052::tt0114508'
p144
sS'109'
p145
S'tt0108160::tt0955308::tt0099348::tt0113041::tt0117381::tt0114746::tt0083658::tt0114681::tt0113481::tt0112883'
p146
sS'102'
p147
S'tt2665218::tt0137494::tt0119008::tt0107478::tt0114709::tt0106339::tt0083866::tt0118866::tt0298148::tt0116282'
p148
sS'103'
p149
S'tt0119008::tt0110912::tt0112445::tt0114478::tt0137494::tt0105488::tt0115639::tt0109771::tt0082158::tt0118866'
p150
sS'100'
p151
S'tt0116282::tt2665218::tt0114814::tt0109686::tt0113419::tt0110622::tt0112346::tt0435506::tt0113749::tt0112851'
p152
sS'101'
p153
S'tt0109830::tt0109445::tt0114478::tt0114814::tt0053125::tt0110428::tt0110997::tt0110074::tt0113277::tt0063350'
p154
sS'106'
p155
S'tt0137494::tt0107478::tt0114478::tt0119008::tt0118866::tt0063350::tt0061418::tt0105488::tt0114814::tt0195945'
p156
sS'107'
p157
S'tt0114709::tt0110428::tt0047396::tt0114814::tt0117951::tt0105488::tt0331933::tt0107478::tt0111161::tt0046250'
p158
sS'104'
p159
S'tt0111161::tt0814314::tt0094517::tt0119008::tt0107614::tt0109771::tt0108399::tt0137494::tt0105236::tt0082971'
p160
sS'105'
p161
S'tt0119008::tt0112445::tt0114478::tt0105488::tt0082158::tt0109592::tt0137494::tt0117666::tt0118749::tt0101700'
p162
sS'39'
p163
S'tt0113189::tt2665218::tt0112573::tt0116483::tt0113497::tt0112851::tt0095016::tt0111161::tt0113749::tt0105236'
p164
sS'38'
p165
S'tt0082971::tt0119008::tt0094517::tt0109771::tt0118866::tt0117666::tt1216496::tt0089822::tt0114478::tt0119731'
p166
sS'33'
p167
S'tt0090605::tt0114709::tt0110632::tt0109830::tt0111161::tt0112851::tt0117500::tt0114746::tt0050212::tt0117723'
p168
sS'32'
p169
S'tt0114709::tt0117500::tt0083658::tt0090605::tt0095016::tt0054215::tt0092005::tt0112851::tt0110367::tt0117723'
p170
sS'31'
p171
S'tt0090605::tt0050083::tt0114478::tt0084707::tt0119008::tt0118866::tt0114057::tt0298148::tt0101540::tt0109759'
p172
sS'30'
p173
S'tt0119008::tt0137494::tt0114478::tt0105488::tt0117666::tt0106339::tt0118866::tt0112445::tt0107478::tt0094074'
p174
sS'37'
p175
S'tt0109830::tt0110632::tt0090605::tt2665218::tt0112697::tt0112384::tt0092005::tt0111161::tt0045152::tt0112431'
p176
sS'36'
p177
S'tt0112851::tt2665218::tt0116483::tt0083658::tt0117951::tt0105488::tt0110057::tt0137494::tt0112445::tt0047396'
p178
sS'35'
p179
S'tt0110074::tt0103639::tt0112697::tt0844330::tt0360480::tt0113118::tt0112461::tt0137494::tt0117381::tt0120382'
p180
sS'34'
p181
S'tt0090605::tt0107616::tt0111161::tt0082971::tt0050083::tt0112740::tt0084707::tt0038650::tt0101540::tt0097576'
p182
sS'641'
p183
S'tt0113862::tt1229238::tt0115759::tt0114214::tt0113986::tt0117381::tt0110932::tt0112722::tt0353496::tt0094517'
p184
sS'640'
p185
S'tt0111161::tt0251413::tt0108399::tt0112573::tt0050083::tt0113277::tt0112384::tt0112740::tt0109445::tt0095016'
p186
sS'643'
p187
S'tt0110932::tt0096895::tt0112857::tt0113987::tt0114148::tt0112642::tt0111503::tt0110950::tt0114694::tt0058331'
p188
sS'642'
p189
S'tt0113862::tt0112722::tt0082158::tt0115759::tt0112445::tt0111161::tt0115639::tt0118749::tt0102494::tt0105488'
p190
sS'645'
p191
S'tt0116282::tt0110932::tt0110950::tt0113987::tt0117381::tt5545586::tt0103639::tt0109045::tt0107290::tt0112461'
p192
sS'644'
p193
S'tt0109830::tt0066921::tt0114709::tt0114214::tt0110413::tt0113986::tt0110428::tt0114746::tt0109831::tt5545586'
p194
sS'438'
p195
S'tt0112384::tt0114814::tt0112442::tt2271217::tt0251413::tt0114709::tt0112722::tt0109830::tt2665218::tt0251413'
p196
sS'439'
p197
S'tt0110074::tt0844330::tt0137494::tt0114478::tt0117381::tt0112384::tt0107478::tt0353496::tt0111503::tt0106339'
p198
sS'436'
p199
S'tt0113189::tt0116282::tt0090605::tt0113419::tt0113243::tt0110367::tt0113481::tt0114508::tt0110632::tt0109830'
p200
sS'437'
p201
S'tt2665218::tt0114814::tt0110478::tt0112431::tt0113189::tt0067992::tt0113862::tt0083866::tt0112579::tt0107478'
p202
sS'434'
p203
S'tt0360480::tt0109445::tt0137494::tt0107478::tt0063350::tt0109759::tt0117666::tt0106339::tt0118866::tt0081375'
p204
sS'435'
p205
S'tt0251413::tt0112384::tt0095016::tt0050083::tt0114746::tt0053291::tt0105236::tt0114279::tt0113228::tt0090605'
p206
sS'432'
p207
S'tt0110632::tt0114814::tt0955308::tt0090605::tt2271217::tt2665218::tt0073486::tt0251413::tt0111149::tt0120694'
p208
sS'433'
p209
S'tt0047396::tt0137494::tt0119008::tt0105488::tt0109771::tt0118866::tt0112384::tt0137523::tt0114478::tt0106339'
p210
sS'430'
p211
S'tt0119008::tt0137494::tt0105488::tt0094517::tt0109771::tt0118866::tt0814314::tt0114814::tt0298148::tt0082158'
p212
sS'431'
p213
S'tt0114814::tt0114924::tt0045152::tt0083866::tt0053125::tt0092005::tt0113957::tt0111149::tt0106062::tt2665218'
p214
sS'339'
p215
S'tt0110912::tt0113497::tt0113189::tt0083658::tt0090605::::tt0110367::tt0215465::tt0796366::tt0119008::tt0113117'
p216
sS'338'
p217
S'tt0111161::tt0109686::tt0108399::tt0112573::tt0095016::tt0047396::tt0082971::tt0108052::tt0117008::tt0251413'
p218
sS'335'
p219
S'tt0251413::tt0114814::tt0117951::tt0814314::tt0105488::tt0108052::tt0116282::tt2665218::tt0112851::tt0137494'
p220
sS'334'
p221
S'tt0107616::tt0082971::tt0114279::tt0112384::tt0114746::tt0050083::tt0113862::tt0114214::tt0099348::tt0114388'
p222
sS'337'
p223
S'tt0112442::tt0107616::tt0114746::tt0113228::tt0113497::tt0251413::tt0114694::tt1369497::tt0113819::tt0112722'
p224
sS'336'
p225
S'tt0109830::tt0066921::tt0109831::tt0112851::tt5545586::tt0113749::tt0111438::tt0095016::tt0083658::tt0109635'
p226
sS'331'
p227
S'tt0114814::tt0053125::tt0096895::tt0116282::tt0083866::tt0113497::tt0113189::tt0113957::tt0110932::tt0071853'
p228
sS'330'
p229
S'tt0114746::tt0251413::tt0111161::tt0082971::tt0109830::tt0113986::tt0071607::tt0112384::tt0112573::tt0109686'
p230
sS'333'
p231
S'tt0112384::tt0110632::tt0114746::tt0251413::tt0090605::tt0045152::tt0120694::tt0092005::tt0114814::tt0112697'
p232
sS'332'
p233
S'tt0251413::tt0113228::tt0112384::tt0106598::tt0107614::tt0251413::tt0114814::tt2271217::tt0114746::tt0110478'
p234
sS'6'
p235
S'tt0112697::tt0114709::tt0112857::tt2665218::tt0090605::tt0137494::tt0360480::tt0114924::tt0112384::tt0137523'
p236
sS'99'
p237
S'tt0137494::tt0119008::tt0114478::tt0107478::tt0106339::tt0083866::tt0118866::tt0298148::tt0116282::tt0067992'
p238
sS'98'
p239
S'tt0116282::tt0090605::tt0082158::tt0120382::tt0038650::tt0119008::tt0114478::tt2665218::tt0110413::tt0097576'
p240
sS'91'
p241
S'tt0119008::tt0118866::tt0114478::tt0105488::tt0082158::tt0112445::tt0094517::tt0137494::tt0109771::tt0195945'
p242
sS'90'
p243
S'tt0112384::tt0112573::tt0090605::tt0111161::tt0110632::tt2665218::tt0116282::tt0050083::tt0082971::tt0116324'
p244
sS'93'
p245
S'tt0116282::tt2665218::tt0114814::tt0119008::tt0045152::tt0110932::tt0083866::tt0095016::tt0090605::tt0137494'
p246
sS'92'
p247
S'tt0110912::tt0114214::tt0113041::tt0112445::tt0082158::tt0109759::tt0053125::tt0107290::tt0105488::tt0101765'
p248
sS'95'
p249
S'tt0116282::tt0119008::tt0090605::tt0114478::tt0118866::tt0298148::tt0061418::tt0082158::tt0089822::tt1216496'
p250
sS'94'
p251
S'tt0112792::tt0114709::tt0113862::tt0112461::tt0113957::tt0112697::tt0112346::tt0113101::tt0117500::tt0095016'
p252
sS'97'
p253
S'tt0117802::tt0110074::tt0112651::tt0137494::tt0114814::tt0048028::tt0114478::tt0117666::tt0251413::tt0119008'
p254
sS'96'
p255
S'tt0109830::tt2665218::tt0109686::tt0113277::tt0955308::tt5545586::tt0111149::tt0113957::tt0113749::tt0113228'
p256
sS'559'
p257
S'tt0083658::tt0090605::tt0110912::::tt0112346::tt0814314::tt0113497::tt0054215::tt0082971::tt0119008::tt0113819'
p258
sS'558'
p259
S'tt0119008::tt0137494::tt0114478::tt0105488::tt0117666::tt0106339::tt0118866::tt0112445::tt0107478::tt0094074'
p260
sS'555'
p261
S'tt0114709::tt2665218::tt0110478::tt0067992::tt0113862::tt0083866::tt0112579::tt0107478::tt0114924::tt0137494'
p262
sS'554'
p263
S'tt0251413::tt0107616::tt0111161::tt0082971::tt0050083::tt0110413::tt0112740::tt0112384::tt0038650::tt0101540'
p264
sS'557'
p265
S'tt0110428::tt0113228::tt0053125::tt0111161::tt0113071::tt0114214::tt0112740::tt0814314::tt0353496::::tt0113862'
p266
sS'556'
p267
S'tt0112740::tt0109445::tt0110428::tt0032138::tt0034928::tt0114508::::tt0113189::tt0844330::tt0053125::tt0111161'
p268
sS'551'
p269
S'tt2665218::tt0251413::tt0090605::tt0095016::tt0112573::tt0050083::tt0111161::tt0105236::tt0117998::tt0097576'
p270
sS'550'
p271
S'tt0090605::tt0114709::tt0110632::tt0111161::tt0092005::tt0112851::tt0082971::tt0050212::tt0117723::tt0054215'
p272
sS'553'
p273
S'tt0090605::tt0215465::tt0107616::tt0083658::tt0054215::tt0097576::tt0113497::tt0112740::tt0112442::tt0092005'
p274
sS'552'
p275
S'tt0047396::tt0251413::tt0112792::tt0111161::tt2665218::tt0095016::tt0112384::tt0137494::tt0105236::tt0119008'
p276
sS'238'
p277
S'tt0114709::tt0109445::tt0119008::tt5545586::tt0112792::tt0110443::tt0112445::tt0114814::tt0105488::tt0118866'
p278
sS'239'
p279
S'tt0110932::tt0108399::tt0114478::tt0111257::tt0119008::tt0118866::tt0116282::tt0081398::tt0114388::tt0106339'
p280
sS'234'
p281
S'tt0112384::tt0110632::tt0114814::tt0955308::tt0090605::tt2271217::tt2665218::tt0073486::tt0111149::tt0120694'
p282
sS'235'
p283
S'tt0090605::tt0251413::tt0107616::tt0111161::tt0082971::tt0050083::tt0110413::tt0112384::tt0084707::tt0038650'
p284
sS'236'
p285
S'tt0137494::tt0105488::tt0119008::tt0114478::tt0117666::tt0107478::tt0118866::tt0112445::tt0101765::tt0081375'
p286
sS'237'
p287
S'tt0113189::tt0112851::tt0111161::tt0114388::tt0113627::tt0034928::tt0047396::tt0046250::tt0114148::tt0113228'
p288
sS'230'
p289
S'tt0119008::tt0118866::tt0114478::tt0105488::tt0082158::tt0112445::tt0094517::tt0137494::tt0109771::tt0089822'
p290
sS'231'
p291
S'tt0955308::tt2271217::tt0112384::tt0109830::tt0099348::tt0114388::tt0116483::tt0110632::tt0114746::tt0111693'
p292
sS'232'
p293
S'tt0114746::tt0082971::tt0114388::tt0111161::tt0109686::tt0108399::tt0114906::tt0435506::tt0110932::tt1369497'
p294
sS'233'
p295
S'tt0119008::tt0114478::tt0137494::tt0112384::tt0106339::tt0118866::tt0113819::tt0106062::tt0114814::tt0109676'
p296
sS'1'
p297
S'tt0114709::tt0114214::tt0119008::tt0082158::tt0360480::tt5545586::tt0112445::tt0071607::tt0109592::tt0101414'
p298
sS'614'
p299
S'tt0111161::tt0110367::tt0113277::tt0034583::tt0353496::tt0095016::tt0108052::tt0113243::tt0114388::tt0105488'
p300
sS'146'
p301
S'tt0251413::tt0095016::tt0114279::tt0050083::tt0090605::tt0110632::tt2665218::tt0105236::tt0073486::tt0108052'
p302
sS'147'
p303
S'tt0112573::tt0112384::tt0095016::tt0111161::tt0251413::tt0109830::tt0113986::tt0082971::tt0099785::tt0071607'
p304
sS'144'
p305
S'tt0113497::tt0113189::tt0116282::tt0095016::tt0109444::tt0114814::tt0112857::tt2271217::tt0119008::tt0088763'
p306
sS'145'
p307
S'tt0113189::tt0110912::tt0814314::tt0112851::tt2665218::tt0116483::tt0112792::tt0111282::tt0106977::tt0105236'
p308
sS'142'
p309
S'tt0095016::tt0110074::tt0073486::tt0112857::tt0360307::tt0137494::tt0114576::tt0114478::tt0063350::tt0079758'
p310
sS'143'
p311
S'tt0137494::tt0047396::tt0116483::tt0119008::tt0117666::tt0113627::tt0117802::tt0112851::tt0113189::tt0106339'
p312
sS'140'
p313
S'tt0113862::tt0114508::tt0107616::tt0114746::tt0110413::tt0090605::tt0113189::tt0110632::tt0113749::tt0111149'
p314
sS'141'
p315
S'tt0107616::tt0113189::tt0101414::tt0114814::tt0113862::tt0083658::tt0053125::tt0112857::tt0114906::tt0353496'
p316
sS'612'
p317
S'tt0083658::tt0114478::tt0119008::tt0137494::tt0107478::tt0114709::tt0113819::tt0106339::tt0118866::::tt0109771'
p318
sS'613'
p319
S'tt0113041::tt0107616::tt0114746::tt0114508::tt0955308::tt0113862::tt0108160::tt0034928::tt0113189::::tt0113540'
p320
sS'610'
p321
S'tt0119008::tt0118866::tt0114478::tt0105488::tt0082158::tt0112445::tt0094517::tt0137494::tt0109771::tt0089822'
p322
sS'611'
p323
S'tt0109830::tt0088846::tt0112883::tt0114746::tt0110074::tt0045152::tt0063350::tt0083658::tt0053125::tt0112384'
p324
sS'616'
p325
S'tt2665218::tt0114814::tt0112431::tt0113862::tt0097576::tt0112722::tt0113855::tt0083866::tt0109707::tt0113189'
p326
sS'617'
p327
S'tt0114709::tt0114214::tt0796366::tt0114814::tt0082158::tt0112722::tt0112445::tt0037008::tt0101765::tt0115641'
p328
sS'148'
p329
S'tt0113189::tt0113862::tt0110912::tt0113041::tt0090605::tt0034583::tt0110057::tt0110367::tt0116282::tt0814314'
p330
sS'149'
p331
S'tt0114214::tt0113228::tt0110428::tt2871064::tt0113071::tt0108160::tt5545586::tt0120032::::tt0117110::tt0066921'
p332
sS'623'
p333
S'tt2665218::tt0090605::tt0110632::tt0109830::tt0097576::tt0114508::tt0230877::tt0073486::tt0092005::tt0113419'
p334
sS'622'
p335
S'tt0814314::tt0116282::tt0110912::tt1212129::tt0021814::tt0113228::tt0090605::tt0112573::tt0103064::tt0112384'
p336
sS'133'
p337
S'tt0106598::tt0088846::tt0112883::tt0112641::tt0110074::tt0099348::tt0110443::tt0117381::tt0114388::tt0112579'
p338
sS'132'
p339
S'tt0066921::tt0114709::tt0114214::tt0110413::tt0113986::tt0110428::tt0114746::tt0109831::tt5545586::tt0109445'
p340
sS'131'
p341
S'tt2271217::tt0114388::tt0099348::tt0114214::tt0095016::tt0109830::tt0111161::tt0110912::tt0112573::tt0113497'
p342
sS'130'
p343
S'tt0119008::tt0112445::tt0109676::tt0082158::tt0114478::tt0109592::tt0137494::tt0117666::tt0118866::::tt0105488'
p344
sS'137'
p345
S'tt0090605::tt0114709::tt0110632::tt0109830::tt0111161::tt0092005::tt0112851::tt0082971::tt0117500::tt0114746'
p346
sS'136'
p347
S'tt0083658::tt0090605::tt0117998::tt0110912::tt0107616::tt0215465::tt0120382::tt0111282::tt0112740::tt0114694'
p348
sS'135'
p349
S'tt0112573::tt0113277::tt0095016::tt0111161::tt0113071::tt0112442::tt0114814::tt0112740::tt0095016::tt0114168'
p350
sS'134'
p351
S'tt0112445::tt0105488::tt0119008::tt0108052::tt0109592::tt0353496::tt0137494::tt0118866::tt0082158::tt0089822'
p352
sS'494'
p353
S'tt0113189::tt0112384::tt0050083::tt0095016::tt0090605::tt0052357::tt0137494::tt0119008::tt0137523::tt0114478'
p354
sS'495'
p355
S'tt0955308::tt2271217::tt0112384::tt0109830::tt0099348::tt0114388::tt0116483::tt0110632::tt0114746::tt0111693'
p356
sS'139'
p357
S'tt0114709::tt0113497::tt0137494::tt0107478::tt0114478::tt0054215::tt0114814::tt0117500::tt0119008::tt0331933'
p358
sS'138'
p359
S'tt0112384::tt0095016::tt0114746::tt0053291::tt0105236::tt0114279::tt0113228::tt0090605::tt0251413::tt0120694'
p360
sS'490'
p361
S'tt0112442::tt0083658::tt0107616::tt0114746::tt0113228::tt0090605::tt0113497::tt0251413::tt0114694::tt1369497'
p362
sS'491'
p363
S'tt0114709::tt0113041::tt0251413::tt0113189::tt0113862::tt0110478::tt0112346::tt0112740::tt0110638::tt0113161'
p364
sS'492'
p365
S'tt0119008::tt0118866::tt0114478::tt0105488::tt0082158::tt0112445::tt0094517::tt0137494::tt0109771::tt0089822'
p366
sS'493'
p367
S'tt0111161::tt0117500::tt0113862::tt0113041::tt0113277::tt0360480::tt0110367::tt0117666::tt0112573::tt0109759'
p368
sS'24'
p369
S'tt0114709::tt0114814::tt0113855::tt0097576::tt0090605::tt0082158::tt0112722::tt0120382::tt0113627::tt0102494'
p370
sS'25'
p371
S'tt0112384::tt0251413::tt0108052::tt0090605::tt0119008::tt0251413::tt0137494::tt0113819::tt0114478::tt0118866'
p372
sS'26'
p373
S'tt0066921::tt0112883::tt0114214::tt0120032::tt0113481::tt0117705::tt0106677::tt1043627::tt0108160::tt0110428'
p374
sS'27'
p375
S'tt0116282::tt0109830::tt2665218::tt0109686::tt0113277::tt0955308::tt5545586::tt0111149::tt0113957::tt0113749'
p376
sS'20'
p377
S'tt0114214::tt1212129::tt0053125::tt0109592::tt0113228::tt0111161::tt0112445::tt0101414::tt0109445::tt0114814'
p378
sS'21'
p379
S'tt2665218::tt0116282::tt0113228::tt0113749::tt0090605::tt0110912::tt0021814::tt0105236::tt0114508::tt0052357'
p380
sS'22'
p381
S'tt0090605::tt0111161::tt0050083::tt0114478::tt0084707::tt0119008::tt0118866::tt0114057::tt0298148::tt0101540'
p382
sS'23'
p383
S'tt0112445::tt0082158::tt0119008::tt0109592::tt0105488::tt0116282::tt0118749::tt0091369::tt0114478::tt0126886'
p384
sS'28'
p385
S'tt0114388::tt0117500::tt0114898::tt0106673::tt0251413::tt2271217::tt0109686::tt0113986::tt0110622::tt0112462'
p386
sS'29'
p387
S'tt0114814::tt0116282::tt0109830::tt0053125::tt0109348::tt1212129::tt0111149::tt0110322::tt0109686::tt0110932'
p388
sS'407'
p389
S'tt0137494::tt0119008::tt0114478::tt0107478::tt0106339::tt0118866::tt0298148::tt0116282::tt0067992::tt0095016'
p390
sS'406'
p391
S'tt0113228::tt0111161::tt0101414::tt0360480::tt0114214::tt0112431::tt0119008::tt0109592::tt0082158::tt0034928'
p392
sS'405'
p393
S'tt0114709::tt0067992::tt0110428::tt0137494::tt0114814::tt0119008::tt0114478::tt0110478::tt0107478::tt2665218'
p394
sS'404'
p395
S'tt0251413::tt0107616::tt0082971::tt0114279::tt0112384::tt0114746::tt0111161::tt0050083::tt0113862::tt0114214'
p396
sS'403'
p397
S'tt0113862::tt0112740::tt0112384::tt0114746::tt0109445::tt0065421::tt0047437::tt0113041::tt0110478::tt0113101'
p398
sS'402'
p399
S'tt0119008::tt0137494::tt0114478::tt0105488::tt0117666::tt0106339::tt0118866::tt0112445::tt0107478::tt0094074'
p400
sS'401'
p401
S'tt0116282::tt0119008::tt0090605::tt0114478::tt0118866::tt0298148::tt0061418::tt0082158::tt0089822::tt1216496'
p402
sS'400'
p403
S'tt0137494::tt0111161::tt0050083::tt0090605::tt0119008::tt0108399::tt2665218::tt0112857::tt0114709::tt0114478'
p404
sS'629'
p405
S'tt0109830::tt0113749::tt0114508::tt0113041::tt0955308::tt0110632::tt0114814::tt0116282::tt0111149::tt2665218'
p406
sS'409'
p407
S'tt0047396::tt0251413::tt0113161::tt0110428::tt0360480::tt0113228::tt0251413::tt0107048::tt0108399::tt0106673'
p408
sS'408'
p409
S'tt0844330::tt0110074::tt0113481::tt0063350::tt0113243::tt0137494::tt0117802::tt0111161::tt0034928::tt0112792'
p410
sS'628'
p411
S'tt0112384::tt0111161::tt0045152::tt0116191::tt0115963::tt0112445::tt0088846::tt0095016::tt0114279::tt0360307'
p412
sS'379'
p413
S'tt0095016::tt0113986::tt0034583::tt0071607::tt0088846::tt0111161::tt0112818::tt0047396::tt0119008::tt0071853'
p414
sS'378'
p415
S'tt0116483::tt0119008::tt0113189::tt0114478::tt0117666::tt0105488::tt0137494::tt0109592::tt0112445::tt0114214'
p416
sS'371'
p417
S'tt0111161::tt0082971::tt0119008::tt0094517::tt0109771::tt0118866::tt0117666::tt1216496::tt0089822::tt0114478'
p418
sS'370'
p419
S'tt0095016::tt0112384::tt0099785::tt0109830::tt0111161::tt2271217::tt0114214::tt0105236::tt0047396::tt0113497'
p420
sS'373'
p421
S'tt0114924::tt0083866::tt0053125::tt0110428::tt0112384::tt0137494::tt0106977::tt0112697::tt0106062::tt0109830'
p422
sS'372'
p423
S'tt0113041::tt0113862::tt0110638::tt0114214::tt0053125::tt0114388::tt0111282::tt0112442::tt0094517::tt0113189'
p424
sS'375'
p425
S'tt0109445::tt0109830::tt0113277::tt0251413::tt0108399::tt0103064::tt0111161::tt0110074::tt0113819::tt0110598'
p426
sS'374'
p427
S'tt0114746::tt0107614::tt0112442::tt0113228::tt0083658::tt0112883::tt0111503::tt0106598::tt0113819::tt2747352'
p428
sS'377'
p429
S'tt0090605::tt0110912::tt0110413::tt0116282::tt0112740::tt0110428::tt0052357::tt0107616::tt0038650::tt0114694'
p430
sS'376'
p431
S'tt0360480::tt0106064::tt0114388::tt0137494::tt0108399::tt0114478::tt0117666::tt0119008::tt0117802::tt0106339'
p432
sS'618'
p433
S'tt0113497::tt0113189::tt0114746::tt0110367::tt0083658::tt0113819::tt0090605::tt0814314::tt0034583::tt0113986'
p434
sS'393'
p435
S'tt0114746::tt0110074::tt0120382::tt0103639::tt1229238::tt0117381::tt0111503::tt0360480::tt0113481::tt0112697'
p436
sS'392'
p437
S'tt0137494::tt0119008::tt0105488::tt0117666::tt0112445::tt0082846::tt1245763::tt0118866::tt0106339::tt0107096'
p438
sS'88'
p439
S'tt2665218::tt0095016::tt0113189::tt0082158::tt0119008::tt0094517::tt0105488::tt0112445::tt0099685::tt0118866'
p440
sS'89'
p441
S'tt0114746::tt0107616::tt0099348::tt0082971::tt1369497::tt0114214::tt0114388::tt0111161::tt0090605::tt0116483'
p442
sS'397'
p443
S'tt0116282::tt0113189::tt0814314::tt0119008::tt0114478::tt0108550::tt0110912::tt0118866::tt0061418::tt0109592'
p444
sS'396'
p445
S'tt2665218::tt0095016::tt0095016::tt0082158::tt0119008::tt0094517::tt0105488::tt0112445::tt0099685::tt0118866'
p446
sS'395'
p447
S'tt0114709::tt0112697::tt0113862::tt0360480::tt0117500::tt0112792::tt0110478::tt0137494::tt0110074::tt0113161'
p448
sS'394'
p449
S'tt0112384::tt0110622::tt0215465::tt0113277::tt2271217::tt0112857::tt0116282::tt0095016::tt0110148::tt0113497'
p450
sS'82'
p451
S'tt0095016::tt0251413::tt0099785::tt0112573::tt0108052::tt0109830::tt0111161::tt2271217::tt0114214::tt0105236'
p452
sS'83'
p453
S'tt0114814::tt2665218::tt0105488::tt0137494::tt0107614::tt0119008::tt0112431::tt0113862::tt0118866::tt0114709'
p454
sS'80'
p455
S'tt0111161::tt0047396::tt0251413::tt0108399::tt0112442::tt0360480::tt0095016::tt0113041::tt0095016::tt0114214'
p456
sS'81'
p457
S'tt0112445::tt0082158::tt0105488::tt0114478::tt0118749::tt0137494::tt0118866::tt0119008::tt0114057::tt0109759'
p458
sS'86'
p459
S'tt0109445::tt0119008::tt5545586::tt0109592::tt0109045::tt0112445::tt0106339::tt0110057::tt0081398::tt0118866'
p460
sS'87'
p461
S'tt0112384::tt0114814::tt0251413::tt0114148::tt2665218::tt0083866::tt0120382::tt0110367::tt0095016::tt0112697'
p462
sS'84'
p463
S'tt0113189::tt0112851::tt0814314::tt0113986::tt0113228::tt0095016::tt0105236::tt0117500::tt0066921::tt0099785'
p464
sS'85'
p465
S'tt0117500::tt0112346::tt0114388::tt0113862::tt0116483::tt0112792::tt0112851::tt0114709::tt0095016::tt0083658'
p466
sS'7'
p467
S'tt2665218::tt0112851::tt0112346::tt0113497::tt0099685::tt0083658::tt0251413::tt0117951::tt0109686::tt0114814'
p468
sS'601'
p469
S'tt0110057::tt0113862::tt0360480::tt0047396::tt0110912::tt0111161::tt0115963::tt0113041::tt0107206::tt0114214'
p470
sS'607'
p471
S'tt2665218::tt0095016::tt0082158::tt0119008::tt0094517::tt0105488::tt0112445::tt0099685::tt0118866::tt0091369'
p472
sS'586'
p473
S'tt2271217::tt0112722::tt0112346::tt0114388::tt0099348::tt0117500::tt0113862::tt0112384::tt0251413::tt0097576'
p474
sS'587'
p475
S'tt0112851::tt0047396::tt0083658::tt0111438::tt0117951::tt0118655::tt0108399::tt0107302::tt0095016::tt0117705'
p476
sS'584'
p477
S'tt0115963::tt0112883::tt0110428::tt0105488::tt0120032::tt0117951::tt0117666::tt0112445::tt0137494::tt0114214'
p478
sS'585'
p479
S'tt0110632::tt0090605::tt2665218::tt0112384::tt0092005::tt0045152::tt0112857::tt0116282::tt0117723::tt0050212'
p480
sS'582'
p481
S'tt0112857::tt0112384::tt0109045::tt0117247::tt0113987::tt0114478::tt0109508::tt0353496::tt0112445::tt0109592'
p482
sS'583'
p483
S'tt0099348::tt0360480::tt0114746::tt0251413::tt0108160::tt0112384::tt0955308::tt0112883::tt0117705::tt0042192'
p484
sS'580'
p485
S'tt0137494::tt1212129::tt2665218::tt0116282::tt0119008::tt0110074::tt0052357::tt0103064::tt0109348::tt0117802'
p486
sS'581'
p487
S'tt0109830::tt0112384::tt0110632::tt0114814::tt0955308::tt0090605::tt2271217::tt2665218::tt0073486::tt0251413'
p488
sS'588'
p489
S'tt0111161::tt0114168::tt0137494::tt0047396::tt0117802::tt0110074::tt0117666::tt0103064::tt0844330::tt0119008'
p490
sS'589'
p491
S'tt0117500::tt0114148::tt0110367::tt0114746::tt0095016::tt0113497::tt0844330::tt0112346::tt0114388::tt0114885'
p492
sS'245'
p493
S'tt0083866::tt0114709::tt0114924::tt0053125::tt0110428::tt0106673::tt0110729::tt0111257::tt0092005::tt0045152'
p494
sS'244'
p495
S'tt0113041::tt0107616::tt0114746::tt0114508::tt0955308::tt0113862::tt0108160::tt0110428::tt0034928::tt0113189'
p496
sS'247'
p497
S'tt0110932::tt0108399::tt0114478::tt0119008::tt0118866::tt0116282::tt0081398::tt0114388::tt0106339::tt0109445'
p498
sS'246'
p499
S'tt0251413::tt0112722::tt0114214::tt0113986::tt0113228::tt1229238::tt0115759::tt0109830::tt1369497::tt0117381'
p500
sS'241'
p501
S'tt2665218::tt0112851::tt0112346::tt0099685::tt0083658::tt0251413::tt0117951::tt0109686::tt0111438::tt0112445'
p502
sS'240'
p503
S'tt0110632::tt0090605::tt2665218::tt0092005::tt0045152::tt0112857::tt0116282::tt0117723::tt0050212::tt0114924'
p504
sS'243'
p505
S'tt0111161::tt0114709::tt0110428::tt0106977::tt0119008::tt0109592::tt0110413::tt0114214::tt0116483::tt0112445'
p506
sS'242'
p507
S'tt0116282::tt0110912::tt2665218::tt1212129::tt0021814::tt0113228::tt0090605::tt0112573::tt0103064::tt0112384'
p508
sS'615'
p509
S'tt0119008::tt0114478::tt0118866::tt0298148::tt0061418::tt0082158::tt0089822::tt1216496::tt0195945::tt0119731'
p510
sS'249'
p511
S'tt0814314::tt0110912::tt0113497::tt0083658::tt0090605::::tt0110367::tt0215465::tt0796366::tt0119008::tt0113117'
p512
sS'248'
p513
S'tt0955308::tt2271217::tt0114508::tt0107616::tt0065421::tt0113749::tt0112740::tt0814314::tt0113041::tt0112346'
p514
sS'519'
p515
S'tt0112384::tt0112573::tt0114709::tt0090605::tt0050083::tt0082971::tt0116324::tt0117723::tt0095016::tt0105236'
p516
sS'518'
p517
S'tt0116282::tt0119008::tt0090605::tt0114478::tt0118866::tt0298148::tt0061418::tt0082158::tt0089822::tt1216496'
p518
sS'511'
p519
S'tt0117500::tt0114388::tt0114709::tt0106673::tt2271217::tt0251413::tt0435506::tt0114924::tt0112697::tt0109686'
p520
sS'510'
p521
S'tt0110074::tt0844330::tt0117802::tt0113277::tt0114478::tt0137494::tt0113481::tt0119008::tt0117666::tt0111257'
p522
sS'513'
p523
S'tt0113862::tt0113041::tt1229238::tt0113627::tt0115759::tt0114388::tt0114214::tt0117500::tt0053125::tt0115963'
p524
sS'512'
p525
S'tt0112857::tt2665218::tt0109508::tt0112384::tt0109045::tt0107822::tt0353496::tt0251413::tt0062711::tt0113228'
p526
sS'515'
p527
S'tt0090605::tt0114709::tt0110632::tt0109830::tt0111161::tt0092005::tt0112851::tt0082971::tt0117500::tt0114746'
p528
sS'514'
p529
S'tt2665218::tt0114814::tt0137494::tt0114924::tt0107478::tt0053125::tt0083866::tt0119008::tt0105488::tt0118866'
p530
sS'517'
p531
S'tt0113497::tt0113189::tt0095016::tt0814314::tt0032138::tt0110367::tt0090605::tt0796366::tt0083658::tt0113117'
p532
sS'516'
p533
S'tt0109830::tt0113189::tt0116282::tt0114814::tt0110057::tt0113862::tt0111282::tt0113540::tt0111149::tt0113957'
p534
sS'458'
p535
S'tt0119008::tt0109445::tt0071607::tt0110057::tt0109592::tt0118866::tt0112445::::tt0109676::tt5545586::tt0106339'
p536
sS'459'
p537
S'tt0955308::tt0109445::tt0112740::tt0114508::tt0034928::tt0116282::::tt0110598::tt0113419::tt0111161::tt0113862'
p538
sS'621'
p539
S'tt0066921::tt0114709::tt0114214::tt0110413::tt0113986::tt0110428::tt0114746::tt0109831::tt5545586::tt0109445'
p540
sS'620'
p541
S'tt0119008::tt0137494::tt0114478::tt0105488::tt0117666::tt0106339::tt0118866::tt0112445::tt0107478::tt0094074'
p542
sS'627'
p543
S'tt0111161::tt0110912::tt0119008::tt0116483::tt0034583::tt0137494::tt2665218::tt0103064::tt0105488::tt0105236'
p544
sS'626'
p545
S'tt0119008::tt0118866::tt0114478::tt0105488::tt0082158::tt0112445::tt0094517::tt0137494::tt0109771::tt0089822'
p546
sS'625'
p547
S'tt0116282::tt0119008::tt0090605::tt0114478::tt0118866::tt0298148::tt0061418::tt0082158::tt0089822::tt1216496'
p548
sS'624'
p549
S'tt0116282::tt0119008::tt0114478::tt0112445::tt0082158::tt0109676::tt0126886::tt0137494::tt0091369::tt0118866'
p550
sS'450'
p551
S'tt0117500::tt0112697::tt0113161::tt0251413::tt0106697::tt0114746::tt0110428::tt0435506::tt0106673::tt0099348'
p552
sS'451'
p553
S'tt0113228::tt0107614::tt0109830::tt0114746::tt0251413::tt0111503::tt0112384::tt0113161::tt0110912::tt2747352'
p554
sS'452'
p555
S'tt0114214::tt0112442::tt0112445::tt0114478::tt0109759::tt0082158::tt0095016::tt0053125::tt0094517::tt0119008'
p556
sS'453'
p557
S'tt0090605::tt0114709::tt0110632::tt0109830::tt0111161::tt0092005::tt0112851::tt0082971::tt0117500::tt0114746'
p558
sS'454'
p559
S'tt0117500::tt0114388::tt0112346::tt0114709::tt0106673::tt2271217::tt0251413::tt0435506::tt0114924::tt0112697'
p560
sS'455'
p561
S'tt0113189::tt2665218::tt0112573::tt0116483::tt0113497::tt0112851::tt0095016::tt0111161::tt0113749::tt0112792'
p562
sS'456'
p563
S'tt0114746::tt0111161::tt0113986::tt0071607::tt0112384::tt0112573::tt0109686::tt0094517::tt0119008::tt0034583'
p564
sS'457'
p565
S'tt0137494::tt0114478::tt0105488::tt0112445::tt0106339::tt0117666::tt0109592::tt0118866::tt0061418::tt0107096'
p566
sS'179'
p567
S'tt0360480::tt0114746::tt0112697::tt0106697::tt0251413::tt0099348::tt0117500::tt0113161::tt0113189::tt0114388'
p568
sS'178'
p569
S'tt0113497::tt0112384::tt0137494::tt0114478::tt0110074::tt0063350::tt0119008::tt0107478::tt0029947::tt0112819'
p570
sS'177'
p571
S'tt0111257::tt0113277::tt0111161::tt0844330::tt0114906::tt0021814::tt0112792::tt0110367::tt0109045::tt0112740'
p572
sS'176'
p573
S'tt0047396::tt0095016::tt0062622::tt0114214::tt0108052::tt0066921::tt0115683::tt0111161::tt0114168::tt0114814'
p574
sS'175'
p575
S'tt0116282::tt0119008::tt0090605::tt0114478::tt0118866::tt0298148::tt0061418::tt0082158::tt0089822::tt1216496'
p576
sS'174'
p577
S'tt0110932::tt0353496::tt0113189::tt0112792::tt0109686::tt0108550::tt1212129::tt0096895::tt0113957::tt0110367'
p578
sS'173'
p579
S'tt0112697::tt0112857::tt0110478::tt0067992::tt0106598::tt0054215::tt0137494::tt0117500::tt0053125::tt0360480'
p580
sS'172'
p581
S'tt0107616::tt0113189::tt0095016::tt0114746::tt0112857::tt0053125::tt0114148::tt0112346::tt0114694::tt0083658'
p582
sS'171'
p583
S'tt0113189::tt0108550::tt0110057::tt0116282::tt0113497::tt0113819::tt0112857::tt0110932::tt0353496::tt0112697'
p584
sS'170'
p585
S'tt0955308::tt2271217::tt0114508::tt0107616::tt0113749::tt0112740::tt0814314::tt0113041::tt0112346::tt0380142'
p586
sS'656'
p587
S'tt0119008::tt0114478::tt0137494::tt0107478::tt0106339::tt0118866::tt0061418::tt0109676::tt0117666::tt0298148'
p588
sS'657'
p589
S'tt0251413::tt0095016::tt0114279::tt0050083::tt0090605::tt0110632::tt2665218::tt0105236::tt0073486::tt0108052'
p590
sS'654'
p591
S'tt0119008::tt0090605::tt0114478::tt0118866::tt0298148::tt0061418::tt0082158::tt0089822::tt1216496::tt0195945'
p592
sS'253'
p593
S'tt0116282::tt0090605::tt0113419::tt0113243::tt0110367::tt0114508::tt0110632::tt0034583::tt0109830::tt0032138'
p594
sS'182'
p595
S'tt0116282::tt0095016::tt2665218::tt0112384::tt0114814::tt0111149::tt0107822::tt0114709::tt5545586::tt0106582'
p596
sS'183'
p597
S'tt0114814::tt0116282::tt0109830::tt0053125::tt0109348::tt1212129::tt0111149::tt0110322::tt0109686::tt0110932'
p598
sS'180'
p599
S'tt0112857::tt0113189::tt0114148::tt0109045::tt0117500::tt0114885::tt0114682::tt0095016::tt0110932::tt0073486'
p600
sS'181'
p601
S'tt0114388::tt0112346::tt0114746::tt0251413::tt0435506::tt0083658::tt1369497::tt0116483::tt0114148::tt0110367'
p602
sS'186'
p603
S'tt0109445::tt0113862::tt0111161::tt0097576::tt0955308::tt0112740::tt0114388::tt0090605::tt0110632::tt0116483'
p604
sS'187'
p605
S'tt2665218::tt0114814::tt0109830::tt0116282::tt0112431::tt0114924::tt0045152::tt0092005::tt0109444::tt0083866'
p606
sS'184'
p607
S'tt0063350::tt0112445::tt0088846::tt0113277::tt0109445::tt0112883::tt0114478::tt0082158::tt0116282::tt0119008'
p608
sS'185'
p609
S'tt0113189::tt0095016::tt0814314::tt0032138::tt0110367::tt0090605::tt0215465::tt0796366::tt0095016::tt0083658'
p610
sS'652'
p611
S'tt0090605::tt0111161::tt0082971::tt0112384::tt0110632::tt0119008::tt0112573::tt0118866::tt0117723::tt0119731'
p612
sS'188'
p613
S'tt0114746::tt0107616::tt0099348::tt0082971::tt1369497::tt0114214::tt0114388::tt0111161::tt0090605::tt0116483'
p614
sS'189'
p615
S'tt0114709::tt0113819::tt5545586::tt0107290::tt0111438::tt0113071::tt0113497::tt0955308::tt0108160::tt0114214'
p616
sS'658'
p617
S'tt0110057::tt0047396::tt0112851::tt0113627::tt0106677::tt0106697::tt0116191::tt0117705::tt0120382::tt0118655'
p618
sS'653'
p619
S'tt2665218::tt0113189::tt0113862::tt0110478::tt0090605::tt0109045::tt0117998::tt0097576::tt0114814::tt0092005'
p620
sS'650'
p621
S'tt0112384::tt0112857::tt0088846::tt0360307::tt0111161::tt0073486::tt0215465::tt0113277::tt0063350::tt0045152'
p622
sS'651'
p623
S'tt0090605::tt0114709::tt0110632::tt0109830::tt0092005::tt0112851::tt0082971::tt0117500::tt0114746::tt0117723'
p624
sS'11'
p625
S'tt0110057::tt0047396::tt0112851::tt0113627::tt0106677::tt0106697::tt0116191::tt0117705::tt0120382::tt0118655'
p626
sS'10'
p627
S'tt0111257::tt0113189::tt0113277::tt0844330::tt0114906::tt0021814::tt0112792::tt0110367::tt0112740::tt0034583'
p628
sS'13'
p629
S'tt0114709::tt0112697::tt0114388::tt0113862::tt0117500::tt0360480::tt0112461::tt0116483::tt0112792::tt0113277'
p630
sS'12'
p631
S'tt0108160::tt0955308::tt0099348::tt0113041::tt0117381::tt0114746::tt0083658::tt0114681::tt0113481::tt0112883'
p632
sS'15'
p633
S'tt0114478::tt0112445::tt0119008::tt0110997::tt0063350::tt0117247::tt0109676::tt0106339::tt0137494::tt0109592'
p634
sS'14'
p635
S'tt0117500::tt0112792::tt0113189::tt0114148::tt0112461::tt0110367::tt0113987::tt0110932::tt0114388::tt0112697'
p636
sS'17'
p637
S'tt0137494::tt0105488::tt0117666::tt0106339::tt0118866::tt0112445::tt0107478::tt0094074::tt0061418::tt0109771'
p638
sS'16'
p639
S'tt0116282::tt0113277::tt0109830::tt0110413::tt0113862::tt0113540::tt0113041::tt0109686::tt0113189::tt0111503'
p640
sS'19'
p641
S'tt2665218::tt0095016::tt0095016::tt0082158::tt0119008::tt0094517::tt0105488::tt0112445::tt0099685::tt0118866'
p642
sS'18'
p643
S'tt0109445::tt0114478::tt0108399::tt0109759::tt0082158::tt0109508::tt0097576::tt0096446::tt0091369::tt0126886'
p644
sS'659'
p645
S'tt0251413::tt0090605::tt0112384::tt0106697::tt0112442::tt0054215::tt0029583::tt0113819::tt0113568::tt0063350'
p646
sS'62'
p647
S'tt0107614::tt0113228::tt2747352::tt0114814::tt0112883::tt0111503::tt0099348::tt0112442::tt0112722::tt0113819'
p648
sS'322'
p649
S'tt0090605::tt0111161::tt0082971::tt0112384::tt0110632::tt0119008::tt0112573::tt0118866::tt0117723::tt0119731'
p650
sS'323'
p651
S'tt0112384::tt0112573::tt0114709::tt0090605::tt0111161::tt0110632::tt2665218::tt0116282::tt0050083::tt0082971'
p652
sS'320'
p653
S'tt0814314::tt0095016::tt0112573::tt0114709::tt0113986::tt0034583::tt0071607::tt0088846::tt0112818::tt0119008'
p654
sS'321'
p655
S'tt0109830::tt0109445::tt0119008::tt0112792::tt0110443::tt0112445::tt0050083::tt0105488::tt0118866::tt0109592'
p656
sS'326'
p657
S'tt0955308::tt0114508::tt0113041::tt0108160::tt0113228::tt0034928::tt0110598::tt0109830::tt5545586::tt0083658'
p658
sS'327'
p659
S'tt0114214::tt0114709::tt0053125::tt0113228::tt0110428::tt2665218::tt2871064::tt0113071::tt0108160::tt0111161'
p660
sS'324'
p661
S'tt0110478::tt0106598::tt0054215::tt0112883::tt0083658::tt0090605::tt0115759::tt0107614::tt0112442::tt0063350'
p662
sS'325'
p663
S'tt0114746::tt0113189::tt0117998::tt0110367::tt0113041::tt0844330::tt0034583::tt0111282::tt0034928::tt0103994'
p664
sS'328'
p665
S'tt0113862::tt0113189::tt0112792::tt2665218::tt0112722::tt0117951::tt0113986::tt0109045::tt0117381::tt0110478'
p666
sS'329'
p667
S'tt0113862::tt0110638::tt0114214::tt0053125::tt0114388::tt0111282::tt0112442::tt0094517::tt0113189::tt0109348'
p668
sS'201'
p669
S'tt0113189::tt0116282::tt0090605::tt0113419::tt0113243::tt0110367::tt0113481::tt0114508::tt0110632::tt0034583'
p670
sS'200'
p671
S'tt0113862::tt0107616::tt0114279::tt0113189::tt0101414::tt0113041::tt0053125::tt0114814::tt0114906::tt0113277'
p672
sS'203'
p673
S'tt0955308::tt0114508::tt0113041::tt0108160::tt0113228::tt0034928::tt0110598::tt0109830::tt5545586::tt0083658'
p674
sS'202'
p675
S'tt0111161::tt0090605::tt0119008::tt0114478::tt0137494::tt0114746::tt0118866::tt0117666::tt0061418::tt0106339'
p676
sS'205'
p677
S'tt0112851::tt2665218::tt0117951::tt0111161::tt0103064::tt0113862::tt0114746::tt0114814::tt0114279::tt0112445'
p678
sS'204'
p679
S'tt0114746::tt0109830::tt0107616::tt0110632::tt0090605::tt0112442::tt0082971::tt1369497::tt0112384::tt0113862'
p680
sS'207'
p681
S'tt0113497::tt0107616::tt0113189::tt0111503::tt0110413::tt0083658::tt0113862::tt0112442::tt0090605::tt0107614'
p682
sS'206'
p683
S'tt0112857::tt0112384::tt0113189::tt0109045::tt0353496::tt0109444::tt0117500::tt0032138::tt0112346::tt0073486'
p684
sS'209'
p685
S'tt0112740::tt0109445::tt0110428::tt0032138::tt0034928::::tt0113189::tt0844330::tt0053125::tt0111161::tt0090605'
p686
sS'208'
p687
S'tt0109830::tt0034583::tt0112818::tt0113986::tt0110443::tt0071853::tt0117951::tt0066921::tt0109348::tt0088846'
p688
sS'77'
p689
S'tt0112579::tt2665218::tt0110443::tt0114388::tt0112851::tt0082971::tt0112462::tt0110912::tt0046250::tt0113071'
p690
sS'76'
p691
S'tt0114814::tt0112697::tt0112722::tt0047437::tt0111161::tt0113277::tt0112442::tt0097576::tt0113228::tt0083658'
p692
sS'75'
p693
S'tt0107616::tt0082971::tt0114279::tt0112384::tt0050083::tt0113862::tt0114214::tt0099348::tt0114388::tt0053125'
p694
sS'74'
p695
S'tt0114746::tt0117500::tt1369497::tt0082971::tt0251413::tt0111161::tt0117998::tt0109686::tt0103994::tt0090605'
p696
sS'73'
p697
S'tt0137494::tt0114478::tt0105488::tt0106339::tt0118866::tt0112445::tt0107478::tt0094074::tt0061418::tt0109771'
p698
sS'72'
p699
S'tt0095016::tt5545586::tt0113819::tt0114214::tt0095016::tt0107290::tt0099685::tt0039628::tt0075314::tt1994570'
p700
sS'71'
p701
S'tt0113862::tt0112722::tt0115759::tt0112445::tt0111161::tt0115639::tt0102494::tt0105488::tt1229238::tt0094517'
p702
sS'70'
p703
S'tt0112384::tt0082971::tt0090605::tt0113862::tt0251413::tt0110632::tt0113189::tt0111161::tt0114279::tt0034583'
p704
sS'655'
p705
S'tt0113189::tt0095016::tt0814314::tt0032138::tt0110367::tt0090605::tt0215465::tt0796366::tt0095016::tt0083658'
p706
sS'79'
p707
S'tt0108160::tt0955308::tt0099348::tt0113041::tt0117381::tt0114746::tt0083658::tt0114681::tt0113481::tt0112883'
p708
sS'78'
p709
S'tt0116282::tt0110932::tt0113228::tt0108399::tt0353496::tt0119008::tt0137494::tt0109508::tt0112857::tt0108550'
p710
sS'2'
p711
S'tt0116282::tt2665218::tt0110932::tt0119008::tt0113228::tt0114814::tt0053125::tt0108550::tt1212129::tt0137494'
p712
sS'669'
p713
S'tt0113855::tt0097576::tt0109508::tt0110912::tt0109759::tt0082158::tt0108160::tt0112445::tt0109707::tt0114478'
p714
sS'668'
p715
S'tt0117500::tt0116483::tt0114388::tt0112851::tt0090605::tt0112792::tt0082971::tt0112740::tt0111495::tt0844330'
p716
sS'667'
p717
S'tt2665218::tt0113419::tt0113749::tt0116282::tt0114508::tt0109686::tt0090605::tt0955308::tt0230877::tt0110632'
p718
sS'666'
p719
S'tt0112851::tt0110912::tt0116483::tt2665218::tt0047396::tt0814314::tt0112792::tt0137494::tt0105236::tt0106977'
p720
sS'665'
p721
S'tt0111161::tt0112573::tt0114214::tt0082971::tt0094517::tt0119008::tt0082158::tt0114057::tt0118866::tt0084707'
p722
sS'664'
p723
S'tt0118866::tt0114478::tt0105488::tt0082158::tt0112445::tt0094517::tt0109771::tt0089822::tt0195945::tt0298148'
p724
sS'663'
p725
S'tt0112431::tt0117500::tt0090605::tt2665218::tt0092005::tt0113862::tt0110099::tt0039628::tt0112697::tt0109045'
p726
sS'662'
p727
S'tt0112573::tt2665218::tt0111161::tt0112792::tt0095016::tt0113497::tt0105236::tt0251413::tt0094517::tt0099785'
p728
sS'661'
p729
S'tt0109830::tt0113749::tt0114508::tt0113041::tt0955308::tt0110632::tt0114814::tt0116282::tt0111149::tt2665218'
p730
sS'660'
p731
S'tt0099348::tt0360480::tt0108160::tt0112384::tt0955308::tt0112883::tt0117705::tt0042192::tt0047396::tt0050083'
p732
sS'542'
p733
S'tt0114814::tt0112431::tt0083866::tt2665218::tt0053125::tt0109444::tt0114924::tt0113862::tt0092005::tt0110428'
p734
sS'543'
p735
S'tt0114709::tt0113862::tt0112431::tt0117500::tt0109444::tt0112346::tt0114694::tt0083866::tt0110428::tt0110932'
p736
sS'540'
p737
S'tt0251413::tt0113228::tt0114214::tt0112883::tt0114746::tt0116282::tt0110932::tt0112722::tt0111503::tt0109444'
p738
sS'541'
p739
S'tt0114814::tt2665218::tt0112384::tt0110367::tt0047437::tt0113957::tt0109635::tt0097576::tt0111149::tt0095016'
p740
sS'546'
p741
S'tt0251413::tt0112384::tt0113862::tt0114279::tt0107616::tt0090605::tt0082971::tt0114746::tt0050083::tt0110632'
p742
sS'547'
p743
S'tt0119008::tt0137494::tt0114478::tt0105488::tt0117666::tt0118866::tt0112445::tt0107478::tt0094074::tt0061418'
p744
sS'544'
p745
S'tt0112384::tt0082971::tt0090605::tt0113862::tt0251413::tt0110632::tt0113189::tt0111161::tt0114279::tt0113819'
p746
sS'545'
p747
S'tt0112384::tt0112857::tt0095016::tt0109445::tt0110622::tt0032138::tt0109045::tt0109508::tt0353496::tt0113862'
p748
sS'8'
p749
S'tt0114709::tt0111161::tt0110632::tt0107614::tt0112857::tt0034583::tt0113986::tt0113862::tt0105488::tt0137494'
p750
sS'548'
p751
S'tt0090605::tt0097576::tt0110413::tt0082158::tt0109445::tt0116282::tt2665218::tt0114057::tt0112445::tt0092005'
p752
sS'549'
p753
S'tt0112851::tt0113189::tt2665218::tt0117951::tt0116483::tt0114388::tt0114279::tt0137494::tt0046250::tt0105488'
p754
sS'68'
p755
S'tt0116483::tt0117951::tt0814314::tt0034583::tt0112818::tt0112573::tt0113118::tt0071853::tt0113117::tt2665218'
p756
sS'598'
p757
S'tt0116282::tt0119008::tt0090605::tt0114478::tt0118866::tt0298148::tt0061418::tt0082158::tt0089822::tt1216496'
p758
sS'120'
p759
S'tt0112384::tt0114924::tt2665218::tt0110367::tt0108160::tt0095016::tt0099348::tt0112740::tt0114906::tt0109635'
p760
sS'121'
p761
S'tt2665218::tt0090605::tt0112857::tt0251413::tt0113749::tt0112384::tt0050083::tt0106598::tt0113568::tt0137523'
p762
sS'122'
p763
S'tt0114214::tt0112442::tt0113041::tt0112445::tt0114478::tt0109759::tt0082158::tt0095016::tt0053125::tt0094517'
p764
sS'123'
p765
S'tt0112384::tt0251413::tt0110912::tt0113749::tt0814314::tt0112431::tt2665218::tt0105236::tt0095016::tt0114694'
p766
sS'124'
p767
S'tt0099348::tt0047396::tt0110912::tt0110057::tt0114214::tt0108160::tt0360480::tt0113819::tt0083658::tt0115641'
p768
sS'125'
p769
S'tt0112431::tt0117500::tt0090605::tt2665218::tt0092005::tt0113862::tt0110099::tt0039628::tt0112697::tt0109045'
p770
sS'126'
p771
S'tt0113228::tt0095016::tt0034928::tt0094517::tt0112851::tt0114709::tt0114814::tt0796366::tt0112384::tt0111161'
p772
sS'127'
p773
S'tt0112384::tt0110632::tt0114746::tt0251413::tt0090605::tt0045152::tt0120694::tt0092005::tt0114814::tt0112697'
p774
sS'128'
p775
S'tt0090605::tt0114709::tt0110632::tt0109830::tt0111161::tt0092005::tt0112851::tt0082971::tt0117500::tt0114746'
p776
sS'129'
p777
S'tt0114814::tt0112722::tt0047437::tt0111161::tt0113277::tt0112442::tt0097576::tt0113228::tt0083658::tt2747352'
p778
sS'414'
p779
S'tt0137494::tt0110932::tt0116282::tt0103639::tt0110074::tt0119008::tt0114478::tt0117381::tt0112697::tt0046250'
p780
sS'415'
p781
S'tt0109445::tt0112857::tt0116282::tt0109508::tt0109045::tt0113540::tt0353496::tt0056592::tt0112445::tt0063350'
p782
sS'416'
p783
S'tt0090605::tt0110413::tt0116282::tt0114508::tt0110428::tt0112740::tt0032138::tt0113749::tt0113419::tt0109686'
p784
sS'417'
p785
S'tt0112384::tt0114814::tt0095016::tt2665218::tt0047437::tt0106062::tt0111149::tt0112715::tt0097576::tt0108052'
p786
sS'410'
p787
S'tt0113228::tt0095016::tt0955308::tt0112384::tt0021814::tt0114279::tt0113041::tt0108052::tt0114508::tt0113277'
p788
sS'411'
p789
S'tt0113189::tt0110057::tt0114709::tt0108550::tt0113862::tt0110932::tt0119008::tt0814314::tt0106062::tt0112431'
p790
sS'412'
p791
S'tt0090605::tt0097576::tt0110413::tt0082158::tt0113855::tt0109445::tt0116282::tt2665218::tt0114057::tt0112445'
p792
sS'413'
p793
S'tt2665218::tt0114814::tt0112431::tt0114709::tt0109830::tt0116282::tt0097576::tt0090605::tt0113855::tt0109707'
p794
sS'498'
p795
S'tt0109830::tt0113749::tt0114508::tt0113041::tt0955308::tt0110632::tt0114814::tt0116282::tt0111149::tt2665218'
p796
sS'418'
p797
S'tt0114814::tt0047437::tt0090605::tt0097576::tt0113277::tt0107616::tt0111149::tt0110413::tt0082158::tt0113957'
p798
sS'419'
p799
S'tt2665218::tt0113189::tt0114814::tt0120382::tt0083866::tt0114148::tt0117998::tt0097576::tt0109707::tt0110478'
p800
sS'499'
p801
S'tt0108052::tt0099348::tt0095016::tt0106062::tt0108399::tt0112384::tt0110367::tt0251413::tt0113161::tt0050083'
p802
sS'319'
p803
S'tt0110367::tt0117500::tt2665218::tt0114388::tt0109445::tt0113986::tt0095016::tt0110443::tt0113497::tt0034583'
p804
sS'318'
p805
S'tt0112384::tt0112857::tt0088846::tt0109445::tt0095016::tt0360307::tt0063350::tt0114478::tt0110443::tt0045152'
p806
sS'313'
p807
S'tt0113862::tt0112722::tt0114388::tt1229238::tt0112573::tt0112792::tt0110057::tt0114367::tt0117500::tt0115963'
p808
sS'312'
p809
S'tt0137494::tt0114478::tt0119008::tt0106339::tt0117666::tt0109592::tt0112445::tt0105488::tt0046250::tt0117802'
p810
sS'311'
p811
S'tt0114478::tt0119008::tt0082158::tt0112445::tt0105488::tt0137494::tt0118866::tt0117666::tt0118749::tt0109759'
p812
sS'310'
p813
S'tt0113819::tt0118655::tt0108160::tt0111438::tt0110912::tt0083658::tt0047396::tt0114388::tt2871064::tt0099348'
p814
sS'317'
p815
S'tt0109830::tt0110632::tt0114814::tt0955308::tt0090605::tt2271217::tt2665218::tt0073486::tt0251413::tt0111149'
p816
sS'316'
p817
S'tt0119008::tt0137494::tt0114478::tt0105488::tt0117666::tt0106339::tt0118866::tt0112445::tt0107478::tt0094074'
p818
sS'315'
p819
S'tt0112740::tt0109445::tt0110428::tt0032138::tt0034928::tt0114508::::tt0113189::tt0844330::tt0053125::tt0111161'
p820
sS'314'
p821
S'tt0112384::tt0114814::tt0251413::tt0110367::tt0116282::tt0047437::tt0106062::tt0111149::tt0112715::tt0097576'
p822
sS'496'
p823
S'tt0111161::tt0114388::tt0082971::tt0113277::tt0111257::tt0108399::tt0114906::tt0090605::tt0116483::tt0112346'
p824
sS'497'
p825
S'tt0113189::tt0116282::tt0090605::tt0113419::tt0113243::tt0110367::tt0113481::tt0114508::tt0110632::tt0034583'
p826
sS'3'
p827
S'tt0116483::tt0117951::tt0814314::tt0034583::tt0111161::tt0112818::tt0109830::tt0113118::tt0071853::tt0113117'
p828
sS'368'
p829
S'tt0112384::tt0090605::tt0095016::tt0112573::tt0050083::tt0111161::tt0105236::tt0117998::tt0021814::tt0097576'
p830
sS'369'
p831
S'tt0113228::tt0251413::tt0099785::tt0112384::tt0113986::tt0095016::tt2271217::tt0108052::tt0112851::tt0105236'
p832
sS'366'
p833
S'tt0109830::tt0090605::tt0116282::tt0092005::tt0114709::tt0114814::tt0119008::tt0118866::tt0116483::tt0089822'
p834
sS'367'
p835
S'tt0114709::tt2665218::tt0112431::tt0113189::tt0113862::tt0110478::tt0090605::tt0109045::tt0117998::tt0097576'
p836
sS'364'
p837
S'tt0113228::tt0095016::tt0955308::tt0112384::tt0251413::tt0021814::tt0114279::tt0113041::tt0108052::tt0114508'
p838
sS'365'
p839
S'tt0083658::tt0114478::tt0119008::tt0137494::tt0107478::tt0114709::tt0113819::tt0106339::tt0118866::::tt0109771'
p840
sS'362'
p841
S'tt0114746::tt0251413::tt0111161::tt0113986::tt0071607::tt0112384::tt0112573::tt0109686::tt0094517::tt0119008'
p842
sS'363'
p843
S'tt0119008::tt0114478::tt0137494::tt0107478::tt0118866::tt0061418::tt0109676::tt0117666::tt0298148::::tt0094074'
p844
sS'360'
p845
S'tt0110912::tt0114709::::tt1212129::tt0053125::tt0090605::tt0116282::tt2665218::tt0021814::tt0105236::tt0113117'
p846
sS'361'
p847
S'tt0116282::tt0095016::tt2665218::tt0112384::tt0114814::tt0111149::tt0107822::tt5545586::tt0106582::tt0112431'
p848
sS'380'
p849
S'tt0119008::tt0137494::tt0114478::tt0105488::tt0106339::tt0118866::tt0112445::tt0107478::tt0094074::tt0061418'
p850
sS'381'
p851
S'tt0112384::tt0114388::tt0108399::tt0110932::tt0082971::tt0109686::tt0111161::tt0095016::tt0114746::tt0436364'
p852
sS'382'
p853
S'tt0103064::tt0095016::tt0353496::tt0112445::tt0112857::tt0113627::tt0111161::tt0114279::tt0115639::tt0053125'
p854
sS'383'
p855
S'tt0116282::tt0109830::tt0110413::tt0114814::tt0113540::tt0113041::tt0109686::tt0113189::tt0111503::tt0114709'
p856
sS'384'
p857
S'tt0111161::tt0114709::tt0110428::tt0119008::tt0109592::tt0110413::tt0116483::tt0112445::tt0082158::tt0105488'
p858
sS'385'
p859
S'tt0114709::tt0110478::tt0106598::tt0113862::tt2665218::tt0067992::tt0251413::tt0112857::tt0112431::tt0054215'
p860
sS'key'
p861
S'value'
p862
sS'387'
p863
S'tt0119008::tt0137494::tt0114478::tt0105488::tt0117666::tt0106339::tt0118866::tt0112445::tt0107478::tt0094074'
p864
sS'388'
p865
S'tt0119008::tt0137494::tt0114478::tt0105488::tt0117666::tt0106339::tt0118866::tt0112445::tt0107478::tt0094074'
p866
sS'389'
p867
S'tt0114746::tt0109830::tt0107616::tt0110632::tt0090605::tt0112442::tt0082971::tt1369497::tt0116483::tt0114694'
p868
sS'605'
p869
S'tt0137494::tt0105488::tt0119008::tt0114478::tt0117666::tt0107478::tt0118866::tt0112445::tt0101765::tt0081375'
p870
sS'579'
p871
S'tt0114746::tt0099348::tt0112883::tt0360480::tt0108160::tt0114214::tt0042192::tt0053125::tt0063350::tt0109759'
p872
sS'578'
p873
S'tt0111503::tt0113627::tt0110428::tt0116191::tt0058331::tt0137494::tt0120382::tt0116130::tt0082846::tt0073486'
p874
sS'386'
p875
S'tt0114814::tt0109830::tt0109635::tt0045152::tt0110322::tt0110428::tt0053125::tt0114924::tt0095016::tt0117247'
p876
sS'604'
p877
S'tt0114746::tt0109830::tt0107616::tt0110632::tt0090605::tt0112442::tt0082971::tt1369497::tt0112384::tt0113862'
p878
sS'573'
p879
S'tt0116282::tt0111282::tt0103639::tt0109045::tt0112461::tt0110932::tt0112697::tt0109508::tt0110950::tt0117381'
p880
sS'572'
p881
S'tt0112384::tt0114746::tt0082971::tt0090605::tt0113862::tt0251413::tt0110632::tt0113189::tt0114279::tt0113819'
p882
sS'571'
p883
S'tt0251413::tt0108052::tt0090605::tt0119008::tt0251413::tt0137494::tt0113819::tt0114478::tt0118866::tt0050083'
p884
sS'570'
p885
S'tt0095016::tt0110074::tt0073486::tt0112857::tt0360307::tt0137494::tt0114576::tt0114478::tt0063350::tt0079758'
p886
sS'577'
p887
S'tt0083658::tt0090605::tt0117998::tt0110912::tt0107616::tt0215465::tt0114709::tt0120382::tt0101414::tt0114694'
p888
sS'576'
p889
S'tt0117500::tt0114388::tt0112346::tt0114709::tt0106673::tt2271217::tt0251413::tt0435506::tt0114924::tt0112697'
p890
sS'575'
p891
S'tt0119008::tt0137494::tt0114478::tt0105488::tt0117666::tt0106339::tt0118866::tt0112445::tt0107478::tt0094074'
p892
sS'574'
p893
S'tt2665218::tt0047396::tt0137494::tt0119008::tt0105488::tt0114478::tt0082158::tt0046250::tt0112445::tt0118866'
p894
sS'60'
p895
S'tt0090605::tt0111161::tt0082971::tt0112384::tt0110632::tt0119008::tt0112573::tt0118866::tt0117723::tt0119731'
p896
sS'61'
p897
S'tt0114388::tt0109830::tt0114746::tt0117500::tt0112697::tt0112384::tt0114924::tt0360480::tt2271217::tt0082971'
p898
sS'258'
p899
S'tt0047396::tt0108052::tt0099348::tt0095016::tt0111161::tt0114214::tt0251413::tt0108399::tt0113161::tt0093058'
p900
sS'259'
p901
S'tt0113749::tt0114814::tt0112851::tt2665218::tt0114694::tt0112442::tt0111257::tt0111503::tt0113419::tt0114508'
p902
sS'64'
p903
S'tt0110428::tt0113228::tt0053125::tt0111161::tt0114214::tt0112740::tt0814314::tt0353496::::tt0113862::tt0115963'
p904
sS'65'
p905
S'tt0113189::tt0112579::tt0110912::tt0112462::tt0113749::tt0109830::tt0113228::tt0112384::tt0109045::tt0095016'
p906
sS'66'
p907
S'tt0114709::tt0112697::tt0114388::tt0111161::tt0113862::tt0117500::tt0360480::tt0112461::tt0116483::tt0112792'
p908
sS'67'
p909
S'tt0113277::tt0111161::tt0844330::tt0110367::tt0111257::tt0109592::tt0034583::tt0119008::tt0117802::tt0117666'
p910
sS'252'
p911
S'tt2665218::tt5545586::tt0109045::tt0050083::tt0109445::tt0113228::tt0110443::tt0108052::tt0112445::tt0099653'
p912
sS'69'
p913
S'tt0110932::tt0045152::tt0114924::tt0106062::tt0110322::tt0114694::tt0110428::tt0109830::tt0117500::tt0114388'
p914
sS'250'
p915
S'tt0116282::tt0119008::tt0090605::tt0114478::tt0118866::tt0298148::tt0061418::tt0082158::tt0089822::tt1216496'
p916
sS'251'
p917
S'tt0047396::tt0113627::tt0112384::tt0108052::tt0114746::tt0137494::tt0111161::tt0119008::tt0117008::tt0117666'
p918
sS'256'
p919
S'tt0083658::tt0107616::tt0251413::tt0113161::tt0112346::tt0110357::tt0114388::tt0114681::tt0109830::tt0251413'
p920
sS'257'
p921
S'tt0109045::tt0111257::tt0113189::tt0112857::tt0110932::tt0353496::tt0119008::tt0114478::tt0353496::tt0109592'
p922
sS'254'
p923
S'tt0109830::tt0111161::tt0114214::tt0110413::tt0090605::tt0114057::tt0082158::tt0113198::tt0105488::tt0353496'
p924
sS'255'
p925
S'tt0119008::tt0137494::tt0114478::tt0106339::tt0118866::tt0117666::tt0109676::::tt0105488::tt0047396::tt0094074'
p926
sS'603'
p927
S'tt0090605::tt0110632::tt0109830::tt0111161::tt0092005::tt0082971::tt0117500::tt0114746::tt0050212::tt0117723'
p928
sS'602'
p929
S'tt0113277::tt0088846::tt0063350::tt0111161::tt0114279::tt0114478::tt0112883::tt0112445::tt0110443::tt0029947'
p930
sS'508'
p931
S'tt2665218::tt0114814::tt0112431::tt0114709::tt0109830::tt0116282::tt0097576::tt0090605::tt0113855::tt0109707'
p932
sS'509'
p933
S'tt0119008::tt0137494::tt0105488::tt0117666::tt0106339::tt0118866::tt0112445::tt0107478::tt0094074::tt0061418'
p934
sS'506'
p935
S'tt2665218::tt0114814::tt0112431::tt0113862::tt0097576::tt0112722::tt0113855::tt0083866::tt0109707::tt0113189'
p936
sS'507'
p937
S'tt0114214::tt1212129::tt2871064::tt0114478::tt0112445::tt0053125::tt0109759::tt0119008::tt0109592::tt0046250'
p938
sS'504'
p939
S'tt1229238::tt0111503::tt0110074::tt0112697::tt0058331::tt0251413::tt0120382::tt1369497::tt0117381::tt0114746'
p940
sS'505'
p941
S'tt0114709::tt0114214::tt0796366::tt0114814::tt0082158::tt0112722::tt0112445::tt0037008::tt0101765::tt0115641'
p942
sS'502'
p943
S'tt0119008::tt0082158::tt0109676::tt0091369::tt0126886::tt0118866::tt0107478::tt0112445::tt0109759::tt0298148'
p944
sS'503'
p945
S'tt0112857::tt0109045::tt0113189::tt0111282::tt0116282::tt0117998::tt0114682::tt0110950::tt0110932::tt0113540'
p946
sS'500'
p947
S'tt0109445::tt0113481::tt0108160::tt0110428::tt0063350::tt0844330::tt0088846::tt0110074::tt0113228::tt0115963'
p948
sS'501'
p949
S'tt0119008::tt0137494::tt0114478::tt0105488::tt0117666::tt0106339::tt0118866::tt0112445::tt0107478::tt0094074'
p950
sS'630'
p951
S'tt0112384::tt0083658::tt0090605::tt0110912::tt0814314::tt0095159::tt0116324::tt0110478::tt0117723::tt0112573'
p952
sS'631'
p953
S'tt0251413::tt0112384::tt0113862::tt0114279::tt0107616::tt0090605::tt0114746::tt0050083::tt0110632::tt0114694'
p954
sS'632'
p955
S'tt0112573::tt0114709::tt0090605::tt0110632::tt2665218::tt0116282::tt0050083::tt0082971::tt0116324::tt0117723'
p956
sS'633'
p957
S'tt0109445::tt0108160::tt0063350::tt0114478::tt0360480::tt0110912::tt0109759::tt0107478::tt0112445::tt0088846'
p958
sS'469'
p959
S'tt0110367::tt0955308::tt0107290::tt0097576::tt0109830::tt0108160::tt0099348::tt0106062::tt0109445::tt0114924'
p960
sS'468'
p961
S'tt0114478::tt0112445::tt0109592::tt0119008::tt0109759::tt0105488::tt0137494::tt0046250::tt0117666::tt0114214'
p962
sS'636'
p963
S'tt0955308::tt0114508::tt0113041::tt0108160::tt0113228::tt0034928::tt0110598::tt0109830::tt5545586::tt0083658'
p964
sS'637'
p965
S'tt0113189::tt0116282::tt0090605::tt0113243::tt0110367::tt0113481::tt0114508::tt0110632::tt0034583::tt0109830'
p966
sS'465'
p967
S'tt0360480::tt0137494::tt0113862::tt0114709::tt0107478::tt0109445::tt0108399::tt0114478::tt0112431::tt0110428'
p968
sS'464'
p969
S'tt0113189::tt0116282::tt0090605::tt0113419::tt0113243::tt0110367::tt0113481::tt0110632::tt0034583::tt0109830'
p970
sS'467'
p971
S'tt0114388::tt0112384::tt0435506::tt0109686::tt0110932::tt0106673::tt0112346::tt0251413::tt0117008::tt0108399'
p972
sS'466'
p973
S'tt2665218::tt0095016::tt0097576::tt0120382::tt0090605::tt0110367::tt0082158::tt0119008::tt0109707::tt0038650'
p974
sS'461'
p975
S'tt0119008::tt0137494::tt0114478::tt0105488::tt0814314::tt0112445::tt0106339::tt0117666::tt0109592::tt0118866'
p976
sS'460'
p977
S'tt2665218::tt0090605::tt0112857::tt0113749::tt0112384::tt0050083::tt0106598::tt0113568::tt0137523::tt0073486'
p978
sS'463'
p979
S'tt0119008::tt0137494::tt0114478::tt0105488::tt0117666::tt0106339::tt0118866::tt0112445::tt0107478::tt0094074'
p980
sS'462'
p981
S'tt0116282::tt0113277::tt0109830::tt0110413::tt0113862::tt0114814::tt0113540::tt0113041::tt0109686::tt0113189'
p982
sS'168'
p983
S'tt2665218::tt0113189::tt0251413::tt0095016::tt0119008::tt0114478::tt0137494::tt0107478::tt0082158::tt0298148'
p984
sS'169'
p985
S'tt0113862::tt0360480::tt0112697::tt0110428::tt0137494::tt0117500::tt0112431::tt0083866::tt0107478::tt0109707'
p986
sS'164'
p987
S'tt0109045::tt0111257::tt0112857::tt0110932::tt0353496::tt0119008::tt0114478::tt0353496::tt0081398::tt0109592'
p988
sS'165'
p989
S'tt0115963::tt0114214::tt0360480::tt0113041::tt0053125::tt0112883::tt0109759::tt0120032::tt0117666::tt0114478'
p990
sS'166'
p991
S'tt0116282::tt2665218::tt0114814::tt0053125::tt0113419::tt0114709::tt0111282::tt0109686::tt0116367::tt0109348'
p992
sS'167'
p993
S'tt0113189::tt0844330::tt0034928::tt0111282::tt0113481::tt0110367::tt0113243::tt0112792::tt0111161::tt0095016'
p994
sS'160'
p995
S'tt0114746::tt0251413::tt0029583::tt0109830::tt0137494::tt0117666::tt0047396::tt0113189::tt0118866::tt0119008'
p996
sS'161'
p997
S'tt0116282::tt0090605::tt0082158::tt0120382::tt0038650::tt0119008::tt0126886::tt0091369::tt0114478::tt2665218'
p998
sS'162'
p999
S'tt0114814::tt0116282::tt0109830::tt2665218::tt0109686::tt0955308::tt5545586::tt0111149::tt0113957::tt0113749'
p1000
sS'163'
p1001
S'tt0095016::tt0111161::tt0113277::tt0114214::tt0108052::tt0062622::tt0113071::tt0047396::tt0114814::tt0112819'
p1002
sS'600'
p1003
S'tt0090605::tt0111161::tt0082971::tt0112384::tt0110632::tt0119008::tt0112573::tt0118866::tt0117723::tt0119731'
p1004
sS'9'
p1005
S'tt0090605::tt0110632::tt0110413::tt0097576::tt0082971::tt0092005::tt0114508::tt0230877::tt0112740::tt0084707'
p1006
sS'647'
p1007
S'tt0119008::tt0114478::tt0137494::tt0107478::tt0106339::tt0118866::tt0061418::tt0109676::tt0117666::tt0298148'
p1008
sS'646'
p1009
S'tt0111161::tt0114388::tt0082971::tt0113277::tt0111257::tt0108399::tt0114906::tt0090605::tt0116483::tt0112346'
p1010
sS'649'
p1011
S'tt0109830::tt0110632::tt0090605::tt2665218::tt0092005::tt0111161::tt0045152::tt0112431::tt0112857::tt0116282'
p1012
sS'648'
p1013
S'tt0110428::tt0113071::tt0117951::tt0113749::tt0114214::tt0112445::tt0105488::tt0113101::tt0082158::tt0112740'
p1014
sS'357'
p1015
S'tt0110932::tt0045152::tt0114924::tt0106062::tt0110322::tt0114694::tt0110428::tt0109830::tt0117500::tt0114388'
p1016
sS'356'
p1017
S'tt0107616::tt0113189::tt0095016::tt0114746::tt0112857::tt0053125::tt0114148::tt0112346::tt0114694::tt0083658'
p1018
sS'355'
p1019
S'tt0111161::tt0110428::tt0119008::tt0109592::tt0114214::tt0116483::tt0112445::tt0082158::tt0105488::tt0118866'
p1020
sS'354'
p1021
S'tt0110912::tt0114709::tt0113228::tt0113986::tt0101414::tt0114214::tt0083658::tt0814314::tt0106977::tt0114694'
p1022
sS'353'
p1023
S'tt0114478::tt0112445::tt0109592::tt0119008::tt0114814::tt0109759::tt0105488::tt0137494::tt0046250::tt0117666'
p1024
sS'352'
p1025
S'tt2665218::tt0116282::tt0112851::tt0112579::tt0107822::tt1369497::tt0101414::tt0082971::tt0114814::tt0114148'
p1026
sS'351'
p1027
S'tt0955308::tt0107290::tt0116282::tt0109508::tt5545586::tt0108160::tt0113819::tt0113228::tt0117381::tt0113041'
p1028
sS'350'
p1029
S'tt0110632::tt0111161::tt0092005::tt0112851::tt0082971::tt0117500::tt0114746::tt0050212::tt0117723::tt0054215'
p1030
sS'359'
p1031
S'tt0112384::tt0114746::tt0082971::tt0090605::tt0113862::tt0251413::tt0110632::tt0113189::tt0114279::tt0113819'
p1032
sS'358'
p1033
S'tt0114709::tt0112851::tt2665218::tt0111161::tt0113189::tt0113862::tt0047396::tt0110057::tt0114814::tt0112792'
p1034
sS'216'
p1035
S'tt0112857::tt0112384::tt0095016::tt0113189::tt0353496::tt0109444::tt0117500::tt0032138::tt0112346::tt0073486'
p1036
sS'217'
p1037
S'tt0112384::tt0114388::tt0108399::tt0110932::tt0082971::tt0109686::tt0111161::tt0095016::tt0114746::tt0436364'
p1038
sS'214'
p1039
S'tt0112851::tt2665218::tt0099685::tt0119008::tt0115639::tt0034928::tt0082971::tt0112445::tt0082158::tt0046250'
p1040
sS'215'
p1041
S'tt0109830::tt0109445::tt0119008::tt5545586::tt0112792::tt0110443::tt0112445::tt0114814::tt0050083::tt2665218'
p1042
sS'212'
p1043
S'tt0119008::tt0112445::tt0114478::tt0105488::tt0082158::tt0109592::tt0137494::tt0117666::tt0118749::tt0101700'
p1044
sS'213'
p1045
S'tt0137494::tt0114478::tt0119008::tt0106339::tt0117666::tt0109592::tt0112445::tt0105488::tt0046250::tt0117802'
p1046
sS'210'
p1047
S'tt0109830::tt0066921::tt0109831::tt0112851::tt0113749::tt0111438::tt0095016::tt0083658::tt0109635::tt0113497'
p1048
sS'211'
p1049
S'tt0114709::tt0113862::tt0117500::tt0112346::tt0112697::tt0112792::tt0112431::tt0113041::tt0116483::tt0039628'
p1050
sS'218'
p1051
S'tt0108399::tt0112573::tt0050083::tt0113277::tt0112384::tt0112740::tt0021814::tt0095016::tt0436364::tt0113041'
p1052
sS'219'
p1053
S'tt0114709::::tt1212129::tt0053125::tt0090605::tt0116282::tt2665218::tt0021814::tt0105236::tt0113117::tt0108550'
p1054
sS'289'
p1055
S'tt0109830::tt0034583::tt0112818::tt0113986::tt0110443::tt0071853::tt0117951::tt0066921::tt0109348::tt0088846'
p1056
sS'288'
p1057
S'tt0112851::tt0111161::tt2665218::tt0117951::tt0116483::tt0114388::tt0114279::tt0137494::tt0046250::tt0105488'
p1058
sS'4'
p1059
S'tt0112384::tt0110057::tt0114814::tt0119008::tt0109830::tt0113862::tt0106062::tt0116282::tt0090605::tt0110932'
p1060
sS'281'
p1061
S'tt0113228::tt0095016::tt0814314::tt0099685::tt0119008::tt0101414::tt0052357::tt0082158::tt0106582::tt0111149'
p1062
sS'280'
p1063
S'tt0114709::tt0113189::tt0113228::tt0114814::tt0095016::tt0117110::tt0109445::tt0099785::tt0113986::tt0114214'
p1064
sS'283'
p1065
S'tt0095016::tt5545586::tt0099685::tt0107822::tt0360480::tt0113497::tt0112851::tt0071607::tt0111438::tt0119008'
p1066
sS'282'
p1067
S'tt0090605::tt0110632::tt0097576::tt0114508::tt0230877::tt0112431::tt0111161::tt0073486::tt0092005::tt0113419'
p1068
sS'285'
p1069
S'tt0083658::tt0114478::tt0119008::tt0137494::tt0107478::tt0113819::tt0106339::tt0118866::tt0109771::tt0331933'
p1070
sS'284'
p1071
S'tt0114214::tt1212129::tt2871064::tt0114478::tt0112445::tt0053125::tt0109759::tt0119008::tt0109592::tt0046250'
p1072
sS'287'
p1073
S'tt0119008::tt0114478::tt0137494::tt0107478::tt0106339::tt0118866::tt0061418::tt0109676::tt0117666::tt0298148'
p1074
sS'286'
p1075
S'tt0109830::tt0110632::tt0112818::tt0114508::tt1212129::tt0116282::tt0114746::tt0034583::tt0113419::tt0114814'
p1076
sS'674'
p1077
S'tt2271217::tt0112722::tt0112346::tt0114388::tt0099348::tt0117500::tt0113862::tt0112384::tt0251413::tt0097576'
p1078
sS'670'
p1079
S'tt0083658::tt0113819::tt0114814::tt0113189::tt0110057::::tt0119008::tt0112346::tt0083866::tt0117723::tt0107290'
p1080
sS'671'
p1081
S'tt0113497::tt0114746::tt0083658::tt0251413::tt0113819::tt0117500::tt0112442::tt1369497::tt0090605::tt0116483'
p1082
sS'672'
p1083
S'tt0360480::tt0113862::tt0109445::tt0108160::tt0111161::tt0110057::tt0110912::tt0115963::tt0042192::tt0050083'
p1084
sS'673'
p1085
S'tt0112384::tt0112857::tt0088846::tt0360307::tt0111161::tt0073486::tt0215465::tt0113277::tt0063350::tt0045152'
p1086
sS'263'
p1087
S'tt0090605::tt0097576::tt0110413::tt0114814::tt0082158::tt0113855::tt0109445::tt0116282::tt0114057::tt0112445'
p1088
sS'262'
p1089
S'tt0119008::tt0137494::tt0114478::tt0105488::tt0117666::tt0106339::tt0118866::tt0112445::tt0107478::tt0094074'
p1090
sS'261'
p1091
S'tt0113189::tt0117500::tt0114148::tt0110367::tt0095016::tt0113497::tt0844330::tt0112346::tt0114388::tt0114885'
p1092
sS'260'
p1093
S'tt0251413::tt0114814::tt0117951::tt0814314::tt0105488::tt0108052::tt0116282::tt2665218::tt0112851::tt0137494'
p1094
sS'267'
p1095
S'tt0116282::tt2665218::tt0110932::tt0119008::tt0113228::tt0053125::tt0108550::tt1212129::tt0137494::tt0353496'
p1096
sS'266'
p1097
S'tt0116282::tt0095016::tt2665218::tt0112384::tt0113228::tt0111149::tt0107822::tt0114709::tt5545586::tt0106582'
p1098
sS'265'
p1099
S'tt0251413::tt0114746::tt0119008::tt0137494::tt0117666::tt0111161::tt0118866::tt0251413::tt0114478::tt0106339'
p1100
sS'264'
p1101
S'tt0955308::tt0107290::tt0116282::tt0109508::tt5545586::tt0108160::tt0113819::tt0113228::tt0117381::tt0113041'
p1102
sS'269'
p1103
S'tt0109830::tt0114746::tt0110632::tt0251413::tt0090605::tt0112384::tt1369497::tt0116483::tt0092005::tt0082971'
p1104
sS'268'
p1105
S'tt2665218::tt0116282::tt0095016::tt0099685::tt0119008::tt0114709::tt0107822::tt0112445::tt0082158::tt0105488'
p1106
sS'59'
p1107
S'tt0103064::tt0110074::tt0093779::tt0117802::tt0111503::tt0088763::tt0095016::tt0251413::tt0137494::tt0112651'
p1108
sS'58'
p1109
S'tt0066921::tt0112883::tt0114214::tt0114746::tt0111503::tt0120032::tt0113481::tt0117705::tt0814314::tt0108399'
p1110
sS'55'
p1111
S'tt0114214::tt0796366::tt0099348::tt0053125::tt0109759::tt0094517::tt0082158::tt0095016::tt0118002::tt0112445'
p1112
sS'54'
p1113
S'tt0108399::tt0360480::tt0114478::tt0137494::tt0114388::tt0113161::tt0114746::tt0117666::tt0112792::tt0117802'
p1114
sS'57'
p1115
S'tt0113041::tt0083658::tt0113228::tt0110478::tt0114478::tt0042192::tt0115963::tt0053125::tt0050083::tt0109759'
p1116
sS'56'
p1117
S'tt0119008::tt0114478::tt0137494::tt0107478::tt0106339::tt0118866::tt0061418::tt0109676::tt0117666::tt0298148'
p1118
sS'51'
p1119
S'tt0111161::tt0117500::tt0116483::tt0114388::tt0112851::tt0090605::tt0112792::tt0082971::tt0112740::tt0111495'
p1120
sS'50'
p1121
S'tt0110428::tt0113228::tt0053125::tt0111161::tt0113071::tt0114214::tt0353496::::tt0113862::tt0115963::tt0113277'
p1122
sS'53'
p1123
S'tt0090605::tt0114709::tt0110632::tt0109830::tt0111161::tt0092005::tt0112851::tt0082971::tt0117500::tt0114746'
p1124
sS'52'
p1125
S'tt0090605::tt0111161::tt0082971::tt0112384::tt0110632::tt0119008::tt0112573::tt0118866::tt0117723::tt0119731'
p1126
sS'537'
p1127
S'tt0114709::tt2665218::tt0215465::tt0113419::tt0113749::tt0116483::tt0112851::tt0112740::tt0090605::tt0109686'
p1128
sS'536'
p1129
S'tt0113041::tt0114388::tt0094517::tt1229238::tt0117500::tt0113862::tt0112346::tt0083658::tt0108399::tt0110638'
p1130
sS'535'
p1131
S'tt2665218::tt0109830::tt0112792::tt0113862::tt0111161::tt0113198::tt0114709::tt0073486::tt0109635::tt0095016'
p1132
sS'63'
p1133
S'tt0251413::tt0090605::tt0095016::tt0112573::tt0050083::tt0111161::tt0105236::tt0117998::tt0021814::tt0097576'
p1134
sS'533'
p1135
S'tt0251413::tt0113497::tt0083658::tt0113819::tt0054215::tt0117500::tt0112442::tt0029583::tt0106598::tt0435506'
p1136
sS'532'
p1137
S'tt0032138::tt0095016::tt0114694::tt0113497::tt0090605::tt0110148::tt0112740::tt0110912::tt0107616::tt0110413'
p1138
sS'531'
p1139
S'tt0101414::tt0112697::tt0116282::tt0112857::tt0108550::tt0113189::tt0113862::tt0111503::tt0112792::tt0113326'
p1140
sS'530'
p1141
S'tt0112857::tt0109045::tt0113189::tt0111282::tt0116282::tt0117998::tt0114682::tt0110950::tt0110932::tt0113540'
p1142
sS'539'
p1143
S'tt0114709::tt0114214::tt0796366::tt0082158::tt0119008::tt0094517::tt0109830::tt0071607::tt0112445::tt0108052'
p1144
sS'538'
p1145
S'tt0113189::tt2665218::tt0111161::tt0112792::tt0095016::tt0113497::tt0105236::tt0251413::tt0094517::tt0099785'
p1146
sS'115'
p1147
S'tt0114709::tt0108399::tt0095016::tt0110428::tt0047396::tt0113972::tt5545586::tt0094517::tt0114388::tt0110932'
p1148
sS'114'
p1149
S'tt0113862::tt0107616::tt0114279::tt0101414::tt0113041::tt0053125::tt0114814::tt0114906::tt0113277::tt0110428'
p1150
sS'117'
p1151
S'tt2665218::tt0137494::tt0111503::tt0120382::tt1245763::tt0117666::tt0112445::tt0105488::tt0106339::tt0113228'
p1152
sS'116'
p1153
S'tt0117500::tt0112792::tt0113189::tt0114148::tt0112461::tt0110367::tt0113987::tt0110932::tt0114388::tt0112697'
p1154
sS'111'
p1155
S'tt0047396::tt0137494::tt0119008::tt0137523::tt0105488::tt0117666::tt0114478::tt0118866::tt0097165::tt0109771'
p1156
sS'110'
p1157
S'tt0107616::tt0114746::tt0114508::tt0955308::tt0113862::tt0108160::tt0110428::tt0034928::tt0113189::::tt0113540'
p1158
sS'113'
p1159
S'tt0116483::tt2665218::tt0047396::tt0112851::tt0095016::tt0111161::tt0112792::tt0137494::tt0119008::tt0066921'
p1160
sS'112'
p1161
S'tt0116282::tt0109445::tt0109508::tt0107290::tt2665218::tt0955308::tt0251413::tt0109045::tt0110622::tt0113228'
p1162
sS'119'
p1163
S'tt0251413::tt0112384::tt0107616::tt0090605::tt0082971::tt0050083::tt0110632::tt0114694::tt0111161::tt0108052'
p1164
sS'118'
p1165
S'tt0090605::tt0111161::tt0082971::tt0112384::tt0110632::tt0119008::tt0112573::tt0118866::tt0117723::tt0119731'
p1166
sS'429'
p1167
S'tt0090605::tt0114709::tt0110632::tt0109830::tt0112384::tt0097576::tt0114508::tt0230877::tt0112431::tt0111161'
p1168
sS'428'
p1169
S'tt0107616::tt0112346::tt0117500::tt0083658::tt0112722::tt0114746::tt1369497::tt0099348::tt0114388::tt0114214'
p1170
sS'534'
p1171
S'tt0113189::tt0116282::tt0090605::tt0110367::tt0113481::tt0114508::tt0110632::tt0034583::tt0109830::tt0032138'
p1172
sS'421'
p1173
S'tt0095016::tt0116282::tt0108052::tt2665218::tt0114814::tt0251413::tt0119008::tt0107302::tt0114388::tt0052357'
p1174
sS'420'
p1175
S'tt0113161::tt0251413::tt0108399::tt0114388::tt0111161::tt0251413::tt0360480::tt0117802::tt0088763::tt0112384'
p1176
sS'423'
p1177
S'tt0114814::tt0113277::tt0117381::tt2665218::tt0108160::tt0109686::tt0107302::tt0083658::tt0112740::tt0095016'
p1178
sS'422'
p1179
S'tt0114709::tt0109444::tt0045152::tt0116282::tt0360480::tt0116483::tt0109445::tt0114924::tt0112461::tt0097576'
p1180
sS'425'
p1181
S'tt0112851::tt0112579::tt0113189::tt0114388::tt0110443::tt0114279::tt0112384::tt0108255::tt0029947::tt0072081'
p1182
sS'424'
p1183
S'tt0083658::::tt0119008::tt0114478::tt0955308::tt0109771::tt0090605::tt0814314::tt0120382::tt0114709::tt0118866'
p1184
sS'427'
p1185
S'tt0119008::tt0137494::tt0114478::tt0105488::tt0117666::tt0106339::tt0118866::tt0112445::tt0107478::tt0094074'
p1186
sS'426'
p1187
S'tt0114214::tt0119008::tt0082158::tt0360480::tt5545586::tt0112445::tt0071607::tt0109592::tt0101414::tt0112431'
p1188
sS'308'
p1189
S'tt0114709::tt0111161::tt0113862::tt0117500::tt0360480::tt0112461::tt0116483::tt0112792::tt0113277::tt0090605'
p1190
sS'309'
p1191
S'tt0114746::tt0113481::tt0119008::tt0137494::tt0090605::tt0113041::tt0106339::tt0117666::tt0112384::tt0118866'
p1192
sS'zzz'
p1193
S'tt0117500::tt0112792::tt0113189::tt0114148::tt0112461::tt0110367::tt0113987::tt0110932::tt0114388::tt0112697'
p1194
sS'300'
p1195
S'tt0095016::tt0114279::tt0050083::tt0090605::tt0110632::tt0105236::tt0073486::tt0108052::tt0111149::tt0120694'
p1196
sS'301'
p1197
S'tt0117500::tt0114388::tt0112346::tt0114709::tt0106673::tt2271217::tt0251413::tt0435506::tt0114924::tt0112697'
p1198
sS'302'
p1199
S'tt2665218::tt0109830::tt0112792::tt0113862::tt0111161::tt0112573::tt0113497::tt0113198::tt0114709::tt0073486'
p1200
sS'303'
p1201
S'tt0113189::tt0047396::tt0113161::tt0112442::tt0113041::tt0108399::tt0360480::tt0115963::tt0110478::tt0110057'
p1202
sS'304'
p1203
S'tt0114924::tt0045152::tt0083866::tt0053125::tt0092005::tt0111149::tt0106062::tt2665218::tt0117723::tt0110322'
p1204
sS'305'
p1205
S'tt0111161::tt0109445::tt0090605::tt0107616::tt0112740::tt0116483::tt0097576::tt0112851::tt0082971::tt0053125'
p1206
sS'306'
p1207
S'tt0119008::tt0118866::tt0114478::tt0105488::tt0082158::tt0112445::tt0094517::tt0137494::tt0109771::tt0089822'
p1208
sS'307'
p1209
S'tt0047396::tt0111161::tt0137494::tt0119008::tt0117666::tt0105488::tt0109771::tt0118866::tt0112384::tt0095016'
p1210
sS'yyy'
p1211
S'tt2271217::tt0113862::tt0112722::tt0114898::tt0114388::tt0113986::tt0114214::tt0110057::tt0113228::tt0099348'
p1212
sS'568'
p1213
S'tt0109445::tt0112857::tt0116282::tt0109508::tt0109045::tt0113540::tt0353496::tt0056592::tt0112445::tt0063350'
p1214
sS'569'
p1215
S'tt0137494::tt0114576::tt0110413::tt0110074::tt0117381::tt0112384::tt0114709::tt0073486::tt0058331::tt0079758'
p1216
sS'560'
p1217
S'tt0113497::tt0117500::tt0083658::tt0090605::tt0095016::tt0054215::tt0092005::tt0112851::tt0110367::tt0117723'
p1218
sS'561'
p1219
S'tt0116282::tt0090605::tt0082158::tt0120382::tt0038650::tt0119008::tt0126886::tt0091369::tt0114478::tt2665218'
p1220
sS'562'
p1221
S'tt0090605::tt0111161::tt0082971::tt0119008::tt0118866::tt0117723::tt0119731::tt1216496::tt0298148::tt0114478'
p1222
sS'563'
p1223
S'tt0113189::tt0111282::tt0113419::tt0119008::tt0113540::tt0090605::tt0113243::tt0114814::tt2271217::tt0112445'
p1224
sS'564'
p1225
S'tt0119008::tt0137494::tt0105488::tt0117666::tt0106339::tt0118866::tt0112445::tt0094074::tt0061418::tt0109771'
p1226
sS'565'
p1227
S'tt0955308::tt2271217::tt0114508::tt0107616::tt0065421::tt0113749::tt0112740::tt0814314::tt0113041::tt0112346'
p1228
sS'566'
p1229
S'tt0109830::tt0112384::tt0110632::tt0114746::tt0251413::tt0090605::tt0045152::tt0120694::tt0092005::tt0114814'
p1230
sS'567'
p1231
S'tt0114709::tt2665218::tt0215465::tt0113419::tt0113749::tt0116483::tt0112851::tt0112740::tt0090605::tt0109686'
p1232
sS'229'
p1233
S'tt0114709::tt0112384::tt0251413::tt0109830::tt0114814::tt0114746::tt0112442::tt0106673::tt0113497::tt2271217'
p1234
sS'228'
p1235
S'tt0113627::tt0137494::tt0116130::tt0082846::tt0047396::tt0118655::tt0058331::tt0113189::tt1245763::tt5545586'
p1236
sS'227'
p1237
S'tt0114746::tt0114214::tt0251413::tt0112883::tt0066921::tt0099348::tt0814314::tt0120032::tt0047396::tt0251413'
p1238
sS'226'
p1239
S'tt0114214::tt0114388::tt0099348::tt0053125::tt0109830::tt0114746::tt0093058::tt0112431::tt0113189::tt0110912'
p1240
sS'225'
p1241
S'tt0114388::tt0111161::tt0109686::tt0108399::tt0095016::tt0047396::tt0082971::tt0108052::tt0117008::tt0251413'
p1242
sS'224'
p1243
S'tt0137494::tt0110428::tt0034928::tt0047396::tt0119008::tt0046250::tt0114478::tt0105488::tt0331933::tt0109771'
p1244
sS'223'
p1245
S'tt0251413::tt0112384::tt0107616::tt0090605::tt0082971::tt0050083::tt0110632::tt0114694::tt0111161::tt0108052'
p1246
sS'222'
p1247
S'tt0137494::tt0105488::tt0119008::tt0114478::tt0117666::tt0107478::tt0118866::tt0112445::tt0101765::tt0081375'
p1248
sS'221'
p1249
S'tt0955308::tt2271217::tt0112384::tt0109830::tt0099348::tt0114388::tt0116483::tt0110632::tt0114746::tt0111693'
p1250
sS'220'
p1251
S'tt0116282::tt0113189::tt0814314::tt0119008::tt0114478::tt0110912::tt0118866::tt0061418::tt0109592::tt0090605'
p1252
sS'391'
p1253
S'tt0114214::tt0099348::tt0053125::tt0111161::tt0109830::tt0114746::tt0093058::tt0112431::tt0113189::tt0110912'
p1254
sS'390'
p1255
S'tt0112431::tt0113627::tt0109707::tt0112722::tt0097576::tt0110478::tt2665218::tt0109445::tt0113041::tt0109444'
p1256
sS'151'
p1257
S'tt0083658::tt0090605::tt0251413::tt0117998::tt0110912::tt0107616::tt0110357::tt0114709::tt0120382::tt0111282'
p1258
sS'150'
p1259
S'tt0112445::tt0082158::tt0119008::tt0109592::tt0105488::tt0116282::tt0118749::tt0091369::tt0114478::tt0126886'
p1260
sS'153'
p1261
S'tt0114709::tt2665218::tt0114814::tt0112697::tt0137494::tt0114924::tt0053125::tt0083866::tt0119008::tt0105488'
p1262
sS'152'
p1263
S'tt0109445::tt0114478::tt0112445::tt0119008::tt0110997::tt0109759::tt0063350::tt0117247::tt0109676::tt0109508'
p1264
sS'155'
p1265
S'tt0113228::tt0112740::tt0021814::tt0113277::tt0111257::tt0109445::tt0103064::tt0111161::tt0108399::tt0110598'
p1266
sS'154'
p1267
S'tt0116282::tt0111282::tt0103639::tt0109045::tt0112461::tt0110932::tt0112697::tt0109508::tt0110950::tt0117381'
p1268
sS'157'
p1269
S'tt0119008::tt0112445::tt0114478::tt0105488::tt0082158::tt0109592::tt0137494::tt0117666::tt0118749::tt0101700'
p1270
sS'156'
p1271
S'tt0110367::tt0955308::tt0107290::tt0097576::tt0109830::tt0108160::tt0099348::tt0106062::tt0109445::tt0114924'
p1272
sS'159'
p1273
S'tt0047396::tt0112792::tt0110057::tt2665218::tt0115963::tt0112851::tt0137523::tt0137494::tt0105488::tt0111161'
p1274
sS'158'
p1275
S'tt0251413::tt0107616::tt0082971::tt0114279::tt0112384::tt0114746::tt0111161::tt0050083::tt0113862::tt0114214'
p1276
sS'609'
p1277
S'tt0955308::tt2271217::tt0114508::tt0107616::tt0065421::tt0113749::tt0112740::tt0814314::tt0113041::tt0112346'
p1278
sS'608'
p1279
S'tt2665218::tt0114814::tt0110478::tt0112431::tt0113189::tt0067992::tt0113862::tt0083866::tt0112579::tt0107478'
p1280
sS'634'
p1281
S'tt0109445::tt0113862::tt0111161::tt0097576::tt0955308::tt0112740::tt0114388::tt0090605::tt0110632::tt0116483'
p1282
sS'399'
p1283
S'tt0114148::tt0113228::tt0112697::tt0095016::tt0034928::tt0094517::tt0112851::tt0114709::tt0796366::tt0112384'
p1284
sS'635'
p1285
S'tt0955308::tt5545586::tt0113497::tt0083658::tt0114214::tt0113071::tt0113819::tt0066921::tt0108160::tt0111438'
p1286
sS'398'
p1287
S'tt0109686::tt0114388::tt0111161::tt0114746::tt0108399::tt0251413::tt0113277::tt0094517::tt0034583::tt0114709'
p1288
sS'48'
p1289
S'tt0119008::tt0137494::tt0114478::tt0105488::tt0117666::tt0106339::tt0118866::tt0112445::tt0107478::tt0094074'
p1290
sS'49'
p1291
S'tt2665218::tt0116282::tt0113228::tt0113749::tt0090605::tt0110912::tt0021814::tt0105236::tt0114508::tt0052357'
p1292
sS'46'
p1293
S'tt0114746::tt0082971::tt0114388::tt0111161::tt0109686::tt0112384::tt0108399::tt0114906::tt0435506::tt0110932'
p1294
sS'47'
p1295
S'tt0111257::tt0113277::tt0111161::tt0844330::tt0114906::tt0021814::tt0112792::tt0110367::tt0109045::tt0112740'
p1296
sS'44'
p1297
S'tt0116483::tt0113189::tt0113749::tt0112579::tt0112851::tt2665218::tt0106598::tt0110478::tt0052357::tt0109830'
p1298
sS'45'
p1299
S'tt0251413::tt0112384::tt0095016::tt0114279::tt0108399::tt0050083::tt0436364::tt0114576::tt0111161::tt0114388'
p1300
sS'42'
p1301
S'tt0114214::tt0082971::tt0099785::tt0111161::tt0114279::tt0114709::tt0113986::tt0113228::tt0071607::tt0114746'
p1302
sS'43'
p1303
S'tt0083866::tt0114814::tt0067992::tt2665218::tt0110428::tt0053125::tt0137494::tt0114924::tt0107478::tt0110729'
p1304
sS'40'
p1305
S'tt0814314::tt0110912::tt1212129::tt0112384::tt0053125::::tt0108550::tt0353496::tt0083658::tt0110932::tt0096895'
p1306
sS'41'
p1307
S'tt0111161::tt0107616::tt0112740::tt0113277::tt0090605::tt0109445::tt0082971::tt0050083::tt0108399::tt0053125'
p1308
sS'638'
p1309
S'tt0114214::tt0114388::tt0099348::tt0053125::tt0111161::tt0109830::tt0114746::tt0093058::tt0112431::tt0113189'
p1310
sS'5'
p1311
S'tt0116282::tt2665218::tt0114814::tt0053125::tt0113419::tt0114709::tt0109830::tt0111282::tt0116367::tt0109348'
p1312
sS'639'
p1313
S'tt0251413::tt0083658::tt0113228::tt0112384::tt0107616::tt0113819::tt0090605::tt0117998::tt0114694::tt0110357'
p1314
sS'xxx'
p1315
S'tt0116282::tt0110932::tt0110950::tt0113987::tt0117381::tt5545586::tt0103639::tt0110322::tt0109045::tt0112642'
p1316
sS'489'
p1317
S'tt0114746::tt0109830::tt0107616::tt0110632::tt0090605::tt0112442::tt0082971::tt1369497::tt0112384::tt0113862'
p1318
sS'488'
p1319
S'tt2665218::tt0110932::tt0119008::tt0113228::tt0114814::tt0053125::tt0108550::tt1212129::tt0137494::tt0353496'
p1320
sS'487'
p1321
S'tt0090605::tt0111161::tt0082971::tt0110632::tt0119008::tt0112573::tt0118866::tt0117723::tt0119731::tt1216496'
p1322
sS'486'
p1323
S'tt0955308::tt5545586::tt0113497::tt0083658::tt0114214::tt0113071::tt0113819::tt0066921::tt0108160::tt0111438'
p1324
sS'485'
p1325
S'tt0113189::tt0844330::tt0111282::tt0113481::tt0110367::tt0113243::tt0111161::tt0095016::tt0112740::tt0111257'
p1326
sS'484'
p1327
S'tt0112384::tt0114814::tt0095016::tt2665218::tt0251413::tt0110367::tt0116282::tt0047437::tt0106062::tt0111149'
p1328
sS'483'
p1329
S'tt0111161::tt0114214::tt0094517::tt0119008::tt0082158::tt0114057::tt0118866::tt0084707::tt0090605::tt0089560'
p1330
sS'482'
p1331
S'tt0112384::tt0108052::tt0090605::tt0119008::tt0251413::tt0137494::tt0113819::tt0114478::tt0118866::tt0050083'
p1332
sS'481'
p1333
S'tt0119008::tt0090605::tt0114478::tt0118866::tt0298148::tt0082158::tt0089822::tt1216496::tt0195945::tt0119731'
p1334
sS'480'
p1335
S'tt2665218::tt0116282::tt0113228::tt0090605::tt0110912::tt0021814::tt0105236::tt0114508::tt0052357::tt0095016'
p1336
sS'472'
p1337
S'tt0119008::tt0137494::tt0114478::tt0117666::tt0106339::tt0118866::tt0112445::tt0107478::tt0094074::tt0109771'
p1338
sS'473'
p1339
S'tt0115963::tt0114214::tt0112883::tt0814314::tt0105488::tt0114057::tt0117666::tt0137523::tt0110057::tt0109759'
p1340
sS'470'
p1341
S'tt0114214::tt0099348::tt0796366::tt0115641::tt0053125::tt0113189::tt0109830::tt0109759::tt5545586::tt0107290'
p1342
sS'471'
p1343
S'tt0116282::tt0095016::tt0114814::tt0113228::tt0111149::tt0107822::tt5545586::tt0106582::tt0112431::tt0360480'
p1344
sS'476'
p1345
S'tt0109830::tt0113749::tt0114508::tt0113041::tt0955308::tt0110632::tt0114814::tt0116282::tt0111149::tt0109686'
p1346
sS'477'
p1347
S'tt0112384::tt0251413::tt0110912::tt0113749::tt0814314::tt0112431::tt2665218::tt0105236::tt0095016::tt0114694'
p1348
sS'474'
p1349
S'tt0112384::tt0110632::tt0109830::tt0095016::tt0114746::tt0090605::tt0112573::tt0120694::tt0251413::tt0050083'
p1350
sS'475'
p1351
S'tt0111161::tt0082971::tt0119008::tt0094517::tt0109771::tt0118866::tt0117666::tt1216496::tt0089822::tt0114478'
p1352
sS'478'
p1353
S'tt0115963::tt0114214::tt0112883::tt0105488::tt0114057::tt0117666::tt0110057::tt0109759::tt0114478::tt0118866'
p1354
sS'479'
p1355
S'tt0114814::tt0083658::tt0109830::tt0251413::tt0092005::tt0117500::tt0113819::tt0113189::tt0117723::tt0106673'
p1356
s.